
bomb:     file format elf64-x86-64


Disassembly of section .init:

0000000000001000 <_init>:
    1000:	f3 0f 1e fa          	endbr64 
    1004:	48 83 ec 08          	sub    $0x8,%rsp
    1008:	48 8b 05 d9 5f 00 00 	mov    0x5fd9(%rip),%rax        # 6fe8 <__gmon_start__>
    100f:	48 85 c0             	test   %rax,%rax
    1012:	74 02                	je     1016 <_init+0x16>
    1014:	ff d0                	call   *%rax
    1016:	48 83 c4 08          	add    $0x8,%rsp
    101a:	c3                   	ret    

Disassembly of section .plt:

0000000000001020 <.plt>:
    1020:	ff 35 ba 5e 00 00    	push   0x5eba(%rip)        # 6ee0 <_GLOBAL_OFFSET_TABLE_+0x8>
    1026:	f2 ff 25 bb 5e 00 00 	bnd jmp *0x5ebb(%rip)        # 6ee8 <_GLOBAL_OFFSET_TABLE_+0x10>
    102d:	0f 1f 00             	nopl   (%rax)
    1030:	f3 0f 1e fa          	endbr64 
    1034:	68 00 00 00 00       	push   $0x0
    1039:	f2 e9 e1 ff ff ff    	bnd jmp 1020 <.plt>
    103f:	90                   	nop
    1040:	f3 0f 1e fa          	endbr64 
    1044:	68 01 00 00 00       	push   $0x1
    1049:	f2 e9 d1 ff ff ff    	bnd jmp 1020 <.plt>
    104f:	90                   	nop
    1050:	f3 0f 1e fa          	endbr64 
    1054:	68 02 00 00 00       	push   $0x2
    1059:	f2 e9 c1 ff ff ff    	bnd jmp 1020 <.plt>
    105f:	90                   	nop
    1060:	f3 0f 1e fa          	endbr64 
    1064:	68 03 00 00 00       	push   $0x3
    1069:	f2 e9 b1 ff ff ff    	bnd jmp 1020 <.plt>
    106f:	90                   	nop
    1070:	f3 0f 1e fa          	endbr64 
    1074:	68 04 00 00 00       	push   $0x4
    1079:	f2 e9 a1 ff ff ff    	bnd jmp 1020 <.plt>
    107f:	90                   	nop
    1080:	f3 0f 1e fa          	endbr64 
    1084:	68 05 00 00 00       	push   $0x5
    1089:	f2 e9 91 ff ff ff    	bnd jmp 1020 <.plt>
    108f:	90                   	nop
    1090:	f3 0f 1e fa          	endbr64 
    1094:	68 06 00 00 00       	push   $0x6
    1099:	f2 e9 81 ff ff ff    	bnd jmp 1020 <.plt>
    109f:	90                   	nop
    10a0:	f3 0f 1e fa          	endbr64 
    10a4:	68 07 00 00 00       	push   $0x7
    10a9:	f2 e9 71 ff ff ff    	bnd jmp 1020 <.plt>
    10af:	90                   	nop
    10b0:	f3 0f 1e fa          	endbr64 
    10b4:	68 08 00 00 00       	push   $0x8
    10b9:	f2 e9 61 ff ff ff    	bnd jmp 1020 <.plt>
    10bf:	90                   	nop
    10c0:	f3 0f 1e fa          	endbr64 
    10c4:	68 09 00 00 00       	push   $0x9
    10c9:	f2 e9 51 ff ff ff    	bnd jmp 1020 <.plt>
    10cf:	90                   	nop
    10d0:	f3 0f 1e fa          	endbr64 
    10d4:	68 0a 00 00 00       	push   $0xa
    10d9:	f2 e9 41 ff ff ff    	bnd jmp 1020 <.plt>
    10df:	90                   	nop
    10e0:	f3 0f 1e fa          	endbr64 
    10e4:	68 0b 00 00 00       	push   $0xb
    10e9:	f2 e9 31 ff ff ff    	bnd jmp 1020 <.plt>
    10ef:	90                   	nop
    10f0:	f3 0f 1e fa          	endbr64 
    10f4:	68 0c 00 00 00       	push   $0xc
    10f9:	f2 e9 21 ff ff ff    	bnd jmp 1020 <.plt>
    10ff:	90                   	nop
    1100:	f3 0f 1e fa          	endbr64 
    1104:	68 0d 00 00 00       	push   $0xd
    1109:	f2 e9 11 ff ff ff    	bnd jmp 1020 <.plt>
    110f:	90                   	nop
    1110:	f3 0f 1e fa          	endbr64 
    1114:	68 0e 00 00 00       	push   $0xe
    1119:	f2 e9 01 ff ff ff    	bnd jmp 1020 <.plt>
    111f:	90                   	nop
    1120:	f3 0f 1e fa          	endbr64 
    1124:	68 0f 00 00 00       	push   $0xf
    1129:	f2 e9 f1 fe ff ff    	bnd jmp 1020 <.plt>
    112f:	90                   	nop
    1130:	f3 0f 1e fa          	endbr64 
    1134:	68 10 00 00 00       	push   $0x10
    1139:	f2 e9 e1 fe ff ff    	bnd jmp 1020 <.plt>
    113f:	90                   	nop
    1140:	f3 0f 1e fa          	endbr64 
    1144:	68 11 00 00 00       	push   $0x11
    1149:	f2 e9 d1 fe ff ff    	bnd jmp 1020 <.plt>
    114f:	90                   	nop
    1150:	f3 0f 1e fa          	endbr64 
    1154:	68 12 00 00 00       	push   $0x12
    1159:	f2 e9 c1 fe ff ff    	bnd jmp 1020 <.plt>
    115f:	90                   	nop
    1160:	f3 0f 1e fa          	endbr64 
    1164:	68 13 00 00 00       	push   $0x13
    1169:	f2 e9 b1 fe ff ff    	bnd jmp 1020 <.plt>
    116f:	90                   	nop
    1170:	f3 0f 1e fa          	endbr64 
    1174:	68 14 00 00 00       	push   $0x14
    1179:	f2 e9 a1 fe ff ff    	bnd jmp 1020 <.plt>
    117f:	90                   	nop
    1180:	f3 0f 1e fa          	endbr64 
    1184:	68 15 00 00 00       	push   $0x15
    1189:	f2 e9 91 fe ff ff    	bnd jmp 1020 <.plt>
    118f:	90                   	nop
    1190:	f3 0f 1e fa          	endbr64 
    1194:	68 16 00 00 00       	push   $0x16
    1199:	f2 e9 81 fe ff ff    	bnd jmp 1020 <.plt>
    119f:	90                   	nop
    11a0:	f3 0f 1e fa          	endbr64 
    11a4:	68 17 00 00 00       	push   $0x17
    11a9:	f2 e9 71 fe ff ff    	bnd jmp 1020 <.plt>
    11af:	90                   	nop
    11b0:	f3 0f 1e fa          	endbr64 
    11b4:	68 18 00 00 00       	push   $0x18
    11b9:	f2 e9 61 fe ff ff    	bnd jmp 1020 <.plt>
    11bf:	90                   	nop
    11c0:	f3 0f 1e fa          	endbr64 
    11c4:	68 19 00 00 00       	push   $0x19
    11c9:	f2 e9 51 fe ff ff    	bnd jmp 1020 <.plt>
    11cf:	90                   	nop
    11d0:	f3 0f 1e fa          	endbr64 
    11d4:	68 1a 00 00 00       	push   $0x1a
    11d9:	f2 e9 41 fe ff ff    	bnd jmp 1020 <.plt>
    11df:	90                   	nop
    11e0:	f3 0f 1e fa          	endbr64 
    11e4:	68 1b 00 00 00       	push   $0x1b
    11e9:	f2 e9 31 fe ff ff    	bnd jmp 1020 <.plt>
    11ef:	90                   	nop
    11f0:	f3 0f 1e fa          	endbr64 
    11f4:	68 1c 00 00 00       	push   $0x1c
    11f9:	f2 e9 21 fe ff ff    	bnd jmp 1020 <.plt>
    11ff:	90                   	nop

Disassembly of section .plt.got:

0000000000001200 <__cxa_finalize@plt>:
    1200:	f3 0f 1e fa          	endbr64 
    1204:	f2 ff 25 ed 5d 00 00 	bnd jmp *0x5ded(%rip)        # 6ff8 <__cxa_finalize@GLIBC_2.2.5>
    120b:	0f 1f 44 00 00       	nopl   0x0(%rax,%rax,1)

Disassembly of section .plt.sec:

0000000000001210 <getenv@plt>:
    1210:	f3 0f 1e fa          	endbr64 
    1214:	f2 ff 25 d5 5c 00 00 	bnd jmp *0x5cd5(%rip)        # 6ef0 <getenv@GLIBC_2.2.5>
    121b:	0f 1f 44 00 00       	nopl   0x0(%rax,%rax,1)

0000000000001220 <free@plt>:
    1220:	f3 0f 1e fa          	endbr64 
    1224:	f2 ff 25 cd 5c 00 00 	bnd jmp *0x5ccd(%rip)        # 6ef8 <free@GLIBC_2.2.5>
    122b:	0f 1f 44 00 00       	nopl   0x0(%rax,%rax,1)

0000000000001230 <strcasecmp@plt>:
    1230:	f3 0f 1e fa          	endbr64 
    1234:	f2 ff 25 c5 5c 00 00 	bnd jmp *0x5cc5(%rip)        # 6f00 <strcasecmp@GLIBC_2.2.5>
    123b:	0f 1f 44 00 00       	nopl   0x0(%rax,%rax,1)

0000000000001240 <__errno_location@plt>:
    1240:	f3 0f 1e fa          	endbr64 
    1244:	f2 ff 25 bd 5c 00 00 	bnd jmp *0x5cbd(%rip)        # 6f08 <__errno_location@GLIBC_2.2.5>
    124b:	0f 1f 44 00 00       	nopl   0x0(%rax,%rax,1)

0000000000001250 <strcpy@plt>:
    1250:	f3 0f 1e fa          	endbr64 
    1254:	f2 ff 25 b5 5c 00 00 	bnd jmp *0x5cb5(%rip)        # 6f10 <strcpy@GLIBC_2.2.5>
    125b:	0f 1f 44 00 00       	nopl   0x0(%rax,%rax,1)

0000000000001260 <puts@plt>:
    1260:	f3 0f 1e fa          	endbr64 
    1264:	f2 ff 25 ad 5c 00 00 	bnd jmp *0x5cad(%rip)        # 6f18 <puts@GLIBC_2.2.5>
    126b:	0f 1f 44 00 00       	nopl   0x0(%rax,%rax,1)

0000000000001270 <write@plt>:
    1270:	f3 0f 1e fa          	endbr64 
    1274:	f2 ff 25 a5 5c 00 00 	bnd jmp *0x5ca5(%rip)        # 6f20 <write@GLIBC_2.2.5>
    127b:	0f 1f 44 00 00       	nopl   0x0(%rax,%rax,1)

0000000000001280 <__stack_chk_fail@plt>:
    1280:	f3 0f 1e fa          	endbr64 
    1284:	f2 ff 25 9d 5c 00 00 	bnd jmp *0x5c9d(%rip)        # 6f28 <__stack_chk_fail@GLIBC_2.4>
    128b:	0f 1f 44 00 00       	nopl   0x0(%rax,%rax,1)

0000000000001290 <alarm@plt>:
    1290:	f3 0f 1e fa          	endbr64 
    1294:	f2 ff 25 95 5c 00 00 	bnd jmp *0x5c95(%rip)        # 6f30 <alarm@GLIBC_2.2.5>
    129b:	0f 1f 44 00 00       	nopl   0x0(%rax,%rax,1)

00000000000012a0 <close@plt>:
    12a0:	f3 0f 1e fa          	endbr64 
    12a4:	f2 ff 25 8d 5c 00 00 	bnd jmp *0x5c8d(%rip)        # 6f38 <close@GLIBC_2.2.5>
    12ab:	0f 1f 44 00 00       	nopl   0x0(%rax,%rax,1)

00000000000012b0 <read@plt>:
    12b0:	f3 0f 1e fa          	endbr64 
    12b4:	f2 ff 25 85 5c 00 00 	bnd jmp *0x5c85(%rip)        # 6f40 <read@GLIBC_2.2.5>
    12bb:	0f 1f 44 00 00       	nopl   0x0(%rax,%rax,1)

00000000000012c0 <fgets@plt>:
    12c0:	f3 0f 1e fa          	endbr64 
    12c4:	f2 ff 25 7d 5c 00 00 	bnd jmp *0x5c7d(%rip)        # 6f48 <fgets@GLIBC_2.2.5>
    12cb:	0f 1f 44 00 00       	nopl   0x0(%rax,%rax,1)

00000000000012d0 <signal@plt>:
    12d0:	f3 0f 1e fa          	endbr64 
    12d4:	f2 ff 25 75 5c 00 00 	bnd jmp *0x5c75(%rip)        # 6f50 <signal@GLIBC_2.2.5>
    12db:	0f 1f 44 00 00       	nopl   0x0(%rax,%rax,1)

00000000000012e0 <gethostbyname@plt>:
    12e0:	f3 0f 1e fa          	endbr64 
    12e4:	f2 ff 25 6d 5c 00 00 	bnd jmp *0x5c6d(%rip)        # 6f58 <gethostbyname@GLIBC_2.2.5>
    12eb:	0f 1f 44 00 00       	nopl   0x0(%rax,%rax,1)

00000000000012f0 <__memmove_chk@plt>:
    12f0:	f3 0f 1e fa          	endbr64 
    12f4:	f2 ff 25 65 5c 00 00 	bnd jmp *0x5c65(%rip)        # 6f60 <__memmove_chk@GLIBC_2.3.4>
    12fb:	0f 1f 44 00 00       	nopl   0x0(%rax,%rax,1)

0000000000001300 <memcpy@plt>:
    1300:	f3 0f 1e fa          	endbr64 
    1304:	f2 ff 25 5d 5c 00 00 	bnd jmp *0x5c5d(%rip)        # 6f68 <memcpy@GLIBC_2.14>
    130b:	0f 1f 44 00 00       	nopl   0x0(%rax,%rax,1)

0000000000001310 <malloc@plt>:
    1310:	f3 0f 1e fa          	endbr64 
    1314:	f2 ff 25 55 5c 00 00 	bnd jmp *0x5c55(%rip)        # 6f70 <malloc@GLIBC_2.2.5>
    131b:	0f 1f 44 00 00       	nopl   0x0(%rax,%rax,1)

0000000000001320 <fflush@plt>:
    1320:	f3 0f 1e fa          	endbr64 
    1324:	f2 ff 25 4d 5c 00 00 	bnd jmp *0x5c4d(%rip)        # 6f78 <fflush@GLIBC_2.2.5>
    132b:	0f 1f 44 00 00       	nopl   0x0(%rax,%rax,1)

0000000000001330 <__isoc99_sscanf@plt>:
    1330:	f3 0f 1e fa          	endbr64 
    1334:	f2 ff 25 45 5c 00 00 	bnd jmp *0x5c45(%rip)        # 6f80 <__isoc99_sscanf@GLIBC_2.7>
    133b:	0f 1f 44 00 00       	nopl   0x0(%rax,%rax,1)

0000000000001340 <__printf_chk@plt>:
    1340:	f3 0f 1e fa          	endbr64 
    1344:	f2 ff 25 3d 5c 00 00 	bnd jmp *0x5c3d(%rip)        # 6f88 <__printf_chk@GLIBC_2.3.4>
    134b:	0f 1f 44 00 00       	nopl   0x0(%rax,%rax,1)

0000000000001350 <fopen@plt>:
    1350:	f3 0f 1e fa          	endbr64 
    1354:	f2 ff 25 35 5c 00 00 	bnd jmp *0x5c35(%rip)        # 6f90 <fopen@GLIBC_2.2.5>
    135b:	0f 1f 44 00 00       	nopl   0x0(%rax,%rax,1)

0000000000001360 <gethostname@plt>:
    1360:	f3 0f 1e fa          	endbr64 
    1364:	f2 ff 25 2d 5c 00 00 	bnd jmp *0x5c2d(%rip)        # 6f98 <gethostname@GLIBC_2.2.5>
    136b:	0f 1f 44 00 00       	nopl   0x0(%rax,%rax,1)

0000000000001370 <exit@plt>:
    1370:	f3 0f 1e fa          	endbr64 
    1374:	f2 ff 25 25 5c 00 00 	bnd jmp *0x5c25(%rip)        # 6fa0 <exit@GLIBC_2.2.5>
    137b:	0f 1f 44 00 00       	nopl   0x0(%rax,%rax,1)

0000000000001380 <connect@plt>:
    1380:	f3 0f 1e fa          	endbr64 
    1384:	f2 ff 25 1d 5c 00 00 	bnd jmp *0x5c1d(%rip)        # 6fa8 <connect@GLIBC_2.2.5>
    138b:	0f 1f 44 00 00       	nopl   0x0(%rax,%rax,1)

0000000000001390 <__fprintf_chk@plt>:
    1390:	f3 0f 1e fa          	endbr64 
    1394:	f2 ff 25 15 5c 00 00 	bnd jmp *0x5c15(%rip)        # 6fb0 <__fprintf_chk@GLIBC_2.3.4>
    139b:	0f 1f 44 00 00       	nopl   0x0(%rax,%rax,1)

00000000000013a0 <sleep@plt>:
    13a0:	f3 0f 1e fa          	endbr64 
    13a4:	f2 ff 25 0d 5c 00 00 	bnd jmp *0x5c0d(%rip)        # 6fb8 <sleep@GLIBC_2.2.5>
    13ab:	0f 1f 44 00 00       	nopl   0x0(%rax,%rax,1)

00000000000013b0 <__ctype_b_loc@plt>:
    13b0:	f3 0f 1e fa          	endbr64 
    13b4:	f2 ff 25 05 5c 00 00 	bnd jmp *0x5c05(%rip)        # 6fc0 <__ctype_b_loc@GLIBC_2.3>
    13bb:	0f 1f 44 00 00       	nopl   0x0(%rax,%rax,1)

00000000000013c0 <__sprintf_chk@plt>:
    13c0:	f3 0f 1e fa          	endbr64 
    13c4:	f2 ff 25 fd 5b 00 00 	bnd jmp *0x5bfd(%rip)        # 6fc8 <__sprintf_chk@GLIBC_2.3.4>
    13cb:	0f 1f 44 00 00       	nopl   0x0(%rax,%rax,1)

00000000000013d0 <socket@plt>:
    13d0:	f3 0f 1e fa          	endbr64 
    13d4:	f2 ff 25 f5 5b 00 00 	bnd jmp *0x5bf5(%rip)        # 6fd0 <socket@GLIBC_2.2.5>
    13db:	0f 1f 44 00 00       	nopl   0x0(%rax,%rax,1)

Disassembly of section .text:

00000000000013e0 <_start>:
    13e0:	f3 0f 1e fa          	endbr64 
    13e4:	31 ed                	xor    %ebp,%ebp
    13e6:	49 89 d1             	mov    %rdx,%r9
    13e9:	5e                   	pop    %rsi
    13ea:	48 89 e2             	mov    %rsp,%rdx
    13ed:	48 83 e4 f0          	and    $0xfffffffffffffff0,%rsp
    13f1:	50                   	push   %rax
    13f2:	54                   	push   %rsp
    13f3:	4c 8d 05 36 1e 00 00 	lea    0x1e36(%rip),%r8        # 3230 <__libc_csu_fini>
    13fa:	48 8d 0d bf 1d 00 00 	lea    0x1dbf(%rip),%rcx        # 31c0 <__libc_csu_init>
    1401:	48 8d 3d c1 00 00 00 	lea    0xc1(%rip),%rdi        # 14c9 <main>
    1408:	ff 15 d2 5b 00 00    	call   *0x5bd2(%rip)        # 6fe0 <__libc_start_main@GLIBC_2.2.5>
    140e:	f4                   	hlt    
    140f:	90                   	nop

0000000000001410 <deregister_tm_clones>:
    1410:	48 8d 3d 49 70 00 00 	lea    0x7049(%rip),%rdi        # 8460 <stdout@GLIBC_2.2.5>
    1417:	48 8d 05 42 70 00 00 	lea    0x7042(%rip),%rax        # 8460 <stdout@GLIBC_2.2.5>
    141e:	48 39 f8             	cmp    %rdi,%rax
    1421:	74 15                	je     1438 <deregister_tm_clones+0x28>
    1423:	48 8b 05 ae 5b 00 00 	mov    0x5bae(%rip),%rax        # 6fd8 <_ITM_deregisterTMCloneTable>
    142a:	48 85 c0             	test   %rax,%rax
    142d:	74 09                	je     1438 <deregister_tm_clones+0x28>
    142f:	ff e0                	jmp    *%rax
    1431:	0f 1f 80 00 00 00 00 	nopl   0x0(%rax)
    1438:	c3                   	ret    
    1439:	0f 1f 80 00 00 00 00 	nopl   0x0(%rax)

0000000000001440 <register_tm_clones>:
    1440:	48 8d 3d 19 70 00 00 	lea    0x7019(%rip),%rdi        # 8460 <stdout@GLIBC_2.2.5>
    1447:	48 8d 35 12 70 00 00 	lea    0x7012(%rip),%rsi        # 8460 <stdout@GLIBC_2.2.5>
    144e:	48 29 fe             	sub    %rdi,%rsi
    1451:	48 89 f0             	mov    %rsi,%rax
    1454:	48 c1 ee 3f          	shr    $0x3f,%rsi
    1458:	48 c1 f8 03          	sar    $0x3,%rax
    145c:	48 01 c6             	add    %rax,%rsi
    145f:	48 d1 fe             	sar    %rsi
    1462:	74 14                	je     1478 <register_tm_clones+0x38>
    1464:	48 8b 05 85 5b 00 00 	mov    0x5b85(%rip),%rax        # 6ff0 <_ITM_registerTMCloneTable>
    146b:	48 85 c0             	test   %rax,%rax
    146e:	74 08                	je     1478 <register_tm_clones+0x38>
    1470:	ff e0                	jmp    *%rax
    1472:	66 0f 1f 44 00 00    	nopw   0x0(%rax,%rax,1)
    1478:	c3                   	ret    
    1479:	0f 1f 80 00 00 00 00 	nopl   0x0(%rax)

0000000000001480 <__do_global_dtors_aux>:
    1480:	f3 0f 1e fa          	endbr64 
    1484:	80 3d fd 6f 00 00 00 	cmpb   $0x0,0x6ffd(%rip)        # 8488 <completed.8060>
    148b:	75 2b                	jne    14b8 <__do_global_dtors_aux+0x38>
    148d:	55                   	push   %rbp
    148e:	48 83 3d 62 5b 00 00 	cmpq   $0x0,0x5b62(%rip)        # 6ff8 <__cxa_finalize@GLIBC_2.2.5>
    1495:	00 
    1496:	48 89 e5             	mov    %rsp,%rbp
    1499:	74 0c                	je     14a7 <__do_global_dtors_aux+0x27>
    149b:	48 8b 3d 66 5b 00 00 	mov    0x5b66(%rip),%rdi        # 7008 <__dso_handle>
    14a2:	e8 59 fd ff ff       	call   1200 <__cxa_finalize@plt>
    14a7:	e8 64 ff ff ff       	call   1410 <deregister_tm_clones>
    14ac:	c6 05 d5 6f 00 00 01 	movb   $0x1,0x6fd5(%rip)        # 8488 <completed.8060>
    14b3:	5d                   	pop    %rbp
    14b4:	c3                   	ret    
    14b5:	0f 1f 00             	nopl   (%rax)
    14b8:	c3                   	ret    
    14b9:	0f 1f 80 00 00 00 00 	nopl   0x0(%rax)

00000000000014c0 <frame_dummy>:
    14c0:	f3 0f 1e fa          	endbr64 
    14c4:	e9 77 ff ff ff       	jmp    1440 <register_tm_clones>

00000000000014c9 <main>:
    14c9:	f3 0f 1e fa          	endbr64 
    14cd:	53                   	push   %rbx
    14ce:	83 ff 01             	cmp    $0x1,%edi
    14d1:	74 51                	je     1524 <main+0x5b>
    14d3:	48 89 f3             	mov    %rsi,%rbx
    14d6:	83 ff 02             	cmp    $0x2,%edi
    14d9:	75 7b                	jne    1556 <main+0x8d>
    14db:	48 8b 7e 08          	mov    0x8(%rsi),%rdi
    14df:	48 8d 35 62 33 00 00 	lea    0x3362(%rip),%rsi        # 4848 <transition_table+0x428>
    14e6:	e8 65 fe ff ff       	call   1350 <fopen@plt>
    14eb:	48 89 05 9e 6f 00 00 	mov    %rax,0x6f9e(%rip)        # 8490 <infile>
    14f2:	48 85 c0             	test   %rax,%rax
    14f5:	74 3d                	je     1534 <main+0x6b>
    14f7:	e8 a1 09 00 00       	call   1e9d <initialize_bomb>
    14fc:	48 89 c3             	mov    %rax,%rbx
    14ff:	81 38 11 fa 23 20    	cmpl   $0x2023fa11,(%rax)
    1505:	74 72                	je     1579 <main+0xb0>
    1507:	48 8d 35 7a 2b 00 00 	lea    0x2b7a(%rip),%rsi        # 4088 <_IO_stdin_used+0x88>
    150e:	bf 01 00 00 00       	mov    $0x1,%edi
    1513:	b8 00 00 00 00       	mov    $0x0,%eax
    1518:	e8 23 fe ff ff       	call   1340 <__printf_chk@plt>
    151d:	b8 00 00 00 00       	mov    $0x0,%eax
    1522:	5b                   	pop    %rbx
    1523:	c3                   	ret    
    1524:	48 8b 05 45 6f 00 00 	mov    0x6f45(%rip),%rax        # 8470 <stdin@GLIBC_2.2.5>
    152b:	48 89 05 5e 6f 00 00 	mov    %rax,0x6f5e(%rip)        # 8490 <infile>
    1532:	eb c3                	jmp    14f7 <main+0x2e>
    1534:	48 8b 4b 08          	mov    0x8(%rbx),%rcx
    1538:	48 8b 13             	mov    (%rbx),%rdx
    153b:	48 8d 35 c2 2a 00 00 	lea    0x2ac2(%rip),%rsi        # 4004 <_IO_stdin_used+0x4>
    1542:	bf 01 00 00 00       	mov    $0x1,%edi
    1547:	e8 f4 fd ff ff       	call   1340 <__printf_chk@plt>
    154c:	bf 08 00 00 00       	mov    $0x8,%edi
    1551:	e8 1a fe ff ff       	call   1370 <exit@plt>
    1556:	48 8b 16             	mov    (%rsi),%rdx
    1559:	48 8d 35 c1 2a 00 00 	lea    0x2ac1(%rip),%rsi        # 4021 <_IO_stdin_used+0x21>
    1560:	bf 01 00 00 00       	mov    $0x1,%edi
    1565:	b8 00 00 00 00       	mov    $0x0,%eax
    156a:	e8 d1 fd ff ff       	call   1340 <__printf_chk@plt>
    156f:	bf 08 00 00 00       	mov    $0x8,%edi
    1574:	e8 f7 fd ff ff       	call   1370 <exit@plt>
    1579:	48 8d 3d 48 2b 00 00 	lea    0x2b48(%rip),%rdi        # 40c8 <_IO_stdin_used+0xc8>
    1580:	e8 db fc ff ff       	call   1260 <puts@plt>
    1585:	48 8d 3d 7c 2b 00 00 	lea    0x2b7c(%rip),%rdi        # 4108 <_IO_stdin_used+0x108>
    158c:	e8 cf fc ff ff       	call   1260 <puts@plt>
    1591:	e8 e4 0c 00 00       	call   227a <read_line>
    1596:	48 89 c7             	mov    %rax,%rdi
    1599:	e8 0f 02 00 00       	call   17ad <phase_1>
    159e:	48 89 df             	mov    %rbx,%rdi
    15a1:	e8 1f 0e 00 00       	call   23c5 <phase_defused>
    15a6:	48 8d 3d 9b 2b 00 00 	lea    0x2b9b(%rip),%rdi        # 4148 <_IO_stdin_used+0x148>
    15ad:	e8 ae fc ff ff       	call   1260 <puts@plt>
    15b2:	e8 c3 0c 00 00       	call   227a <read_line>
    15b7:	48 89 c7             	mov    %rax,%rdi
    15ba:	e8 12 02 00 00       	call   17d1 <phase_2>
    15bf:	48 89 df             	mov    %rbx,%rdi
    15c2:	e8 fe 0d 00 00       	call   23c5 <phase_defused>
    15c7:	48 8d 3d 6d 2a 00 00 	lea    0x2a6d(%rip),%rdi        # 403b <_IO_stdin_used+0x3b>
    15ce:	e8 8d fc ff ff       	call   1260 <puts@plt>
    15d3:	e8 a2 0c 00 00       	call   227a <read_line>
    15d8:	48 89 c7             	mov    %rax,%rdi
    15db:	e8 6e 02 00 00       	call   184e <phase_3>
    15e0:	48 89 df             	mov    %rbx,%rdi
    15e3:	e8 dd 0d 00 00       	call   23c5 <phase_defused>
    15e8:	48 8d 3d 69 2a 00 00 	lea    0x2a69(%rip),%rdi        # 4058 <_IO_stdin_used+0x58>
    15ef:	e8 6c fc ff ff       	call   1260 <puts@plt>
    15f4:	e8 81 0c 00 00       	call   227a <read_line>
    15f9:	48 89 c7             	mov    %rax,%rdi
    15fc:	e8 1b 04 00 00       	call   1a1c <phase_4>
    1601:	48 89 df             	mov    %rbx,%rdi
    1604:	e8 bc 0d 00 00       	call   23c5 <phase_defused>
    1609:	48 8d 3d 68 2b 00 00 	lea    0x2b68(%rip),%rdi        # 4178 <_IO_stdin_used+0x178>
    1610:	e8 4b fc ff ff       	call   1260 <puts@plt>
    1615:	e8 60 0c 00 00       	call   227a <read_line>
    161a:	48 89 c7             	mov    %rax,%rdi
    161d:	e8 79 04 00 00       	call   1a9b <phase_5>
    1622:	48 89 df             	mov    %rbx,%rdi
    1625:	e8 9b 0d 00 00       	call   23c5 <phase_defused>
    162a:	48 8d 3d 36 2a 00 00 	lea    0x2a36(%rip),%rdi        # 4067 <_IO_stdin_used+0x67>
    1631:	e8 2a fc ff ff       	call   1260 <puts@plt>
    1636:	e8 3f 0c 00 00       	call   227a <read_line>
    163b:	48 89 c7             	mov    %rax,%rdi
    163e:	e8 eb 04 00 00       	call   1b2e <phase_6>
    1643:	48 89 df             	mov    %rbx,%rdi
    1646:	e8 7a 0d 00 00       	call   23c5 <phase_defused>
    164b:	48 89 df             	mov    %rbx,%rdi
    164e:	e8 cd fb ff ff       	call   1220 <free@plt>
    1653:	e9 c5 fe ff ff       	jmp    151d <main+0x54>

0000000000001658 <genshin>:
    1658:	f3 0f 1e fa          	endbr64 
    165c:	48 81 ec a8 00 00 00 	sub    $0xa8,%rsp
    1663:	64 48 8b 04 25 28 00 	mov    %fs:0x28,%rax
    166a:	00 00 
    166c:	48 89 84 24 98 00 00 	mov    %rax,0x98(%rsp)
    1673:	00 
    1674:	31 c0                	xor    %eax,%eax
    1676:	48 8d 4c 24 0c       	lea    0xc(%rsp),%rcx
    167b:	48 8d 54 24 08       	lea    0x8(%rsp),%rdx
    1680:	48 83 ec 08          	sub    $0x8,%rsp
    1684:	48 8d 44 24 28       	lea    0x28(%rsp),%rax
    1689:	50                   	push   %rax
    168a:	48 8d 44 24 2c       	lea    0x2c(%rsp),%rax
    168f:	50                   	push   %rax
    1690:	48 8d 44 24 30       	lea    0x30(%rsp),%rax
    1695:	50                   	push   %rax
    1696:	4c 8d 4c 24 34       	lea    0x34(%rsp),%r9
    169b:	4c 8d 44 24 30       	lea    0x30(%rsp),%r8
    16a0:	48 8d 35 f5 2a 00 00 	lea    0x2af5(%rip),%rsi        # 419c <_IO_stdin_used+0x19c>
    16a7:	48 8d 3d 6a 6e 00 00 	lea    0x6e6a(%rip),%rdi        # 8518 <input_strings+0x78>
    16ae:	b8 00 00 00 00       	mov    $0x0,%eax
    16b3:	e8 78 fc ff ff       	call   1330 <__isoc99_sscanf@plt>
    16b8:	48 83 c4 20          	add    $0x20,%rsp
    16bc:	83 f8 07             	cmp    $0x7,%eax
    16bf:	74 20                	je     16e1 <genshin+0x89>
    16c1:	b8 00 00 00 00       	mov    $0x0,%eax
    16c6:	48 8b b4 24 98 00 00 	mov    0x98(%rsp),%rsi
    16cd:	00 
    16ce:	64 48 33 34 25 28 00 	xor    %fs:0x28,%rsi
    16d5:	00 00 
    16d7:	75 2b                	jne    1704 <genshin+0xac>
    16d9:	48 81 c4 a8 00 00 00 	add    $0xa8,%rsp
    16e0:	c3                   	ret    
    16e1:	48 8d 7c 24 20       	lea    0x20(%rsp),%rdi
    16e6:	48 8d 35 d3 2a 00 00 	lea    0x2ad3(%rip),%rsi        # 41c0 <_IO_stdin_used+0x1c0>
    16ed:	e8 5a 07 00 00       	call   1e4c <strings_not_equal>
    16f2:	85 c0                	test   %eax,%eax
    16f4:	74 07                	je     16fd <genshin+0xa5>
    16f6:	b8 00 00 00 00       	mov    $0x0,%eax
    16fb:	eb c9                	jmp    16c6 <genshin+0x6e>
    16fd:	b8 01 00 00 00       	mov    $0x1,%eax
    1702:	eb c2                	jmp    16c6 <genshin+0x6e>
    1704:	e8 77 fb ff ff       	call   1280 <__stack_chk_fail@plt>

0000000000001709 <qidong>:
    1709:	f3 0f 1e fa          	endbr64 
    170d:	48 81 ec 98 00 00 00 	sub    $0x98,%rsp
    1714:	64 48 8b 04 25 28 00 	mov    %fs:0x28,%rax
    171b:	00 00 
    171d:	48 89 84 24 88 00 00 	mov    %rax,0x88(%rsp)
    1724:	00 
    1725:	31 c0                	xor    %eax,%eax
    1727:	48 8d 4c 24 0c       	lea    0xc(%rsp),%rcx
    172c:	48 8d 54 24 08       	lea    0x8(%rsp),%rdx
    1731:	4c 8d 44 24 10       	lea    0x10(%rsp),%r8
    1736:	48 8d 35 6b 2a 00 00 	lea    0x2a6b(%rip),%rsi        # 41a8 <_IO_stdin_used+0x1a8>
    173d:	48 8d 3d c4 6e 00 00 	lea    0x6ec4(%rip),%rdi        # 8608 <input_strings+0x168>
    1744:	e8 e7 fb ff ff       	call   1330 <__isoc99_sscanf@plt>
    1749:	83 f8 03             	cmp    $0x3,%eax
    174c:	74 20                	je     176e <qidong+0x65>
    174e:	b8 00 00 00 00       	mov    $0x0,%eax
    1753:	48 8b b4 24 88 00 00 	mov    0x88(%rsp),%rsi
    175a:	00 
    175b:	64 48 33 34 25 28 00 	xor    %fs:0x28,%rsi
    1762:	00 00 
    1764:	75 42                	jne    17a8 <qidong+0x9f>
    1766:	48 81 c4 98 00 00 00 	add    $0x98,%rsp
    176d:	c3                   	ret    
    176e:	48 8d 54 24 10       	lea    0x10(%rsp),%rdx
    1773:	0f b6 02             	movzbl (%rdx),%eax
    1776:	84 c0                	test   %al,%al
    1778:	74 0b                	je     1785 <qidong+0x7c>
    177a:	83 c0 02             	add    $0x2,%eax
    177d:	88 02                	mov    %al,(%rdx)
    177f:	48 83 c2 01          	add    $0x1,%rdx
    1783:	eb ee                	jmp    1773 <qidong+0x6a>
    1785:	48 8d 7c 24 10       	lea    0x10(%rsp),%rdi
    178a:	48 8d 35 4f 2a 00 00 	lea    0x2a4f(%rip),%rsi        # 41e0 <_IO_stdin_used+0x1e0>
    1791:	e8 b6 06 00 00       	call   1e4c <strings_not_equal>
    1796:	85 c0                	test   %eax,%eax
    1798:	74 07                	je     17a1 <qidong+0x98>
    179a:	b8 00 00 00 00       	mov    $0x0,%eax
    179f:	eb b2                	jmp    1753 <qidong+0x4a>
    17a1:	b8 01 00 00 00       	mov    $0x1,%eax
    17a6:	eb ab                	jmp    1753 <qidong+0x4a>
    17a8:	e8 d3 fa ff ff       	call   1280 <__stack_chk_fail@plt>

00000000000017ad <phase_1>:
    17ad:	f3 0f 1e fa          	endbr64 
    17b1:	48 83 ec 08          	sub    $0x8,%rsp
    17b5:	48 8d 35 4c 2a 00 00 	lea    0x2a4c(%rip),%rsi        # 4208 <_IO_stdin_used+0x208>
    17bc:	e8 8b 06 00 00       	call   1e4c <strings_not_equal>
    17c1:	85 c0                	test   %eax,%eax
    17c3:	75 05                	jne    17ca <phase_1+0x1d>
    17c5:	48 83 c4 08          	add    $0x8,%rsp
    17c9:	c3                   	ret    
    17ca:	e8 e0 09 00 00       	call   21af <explode_bomb>
    17cf:	eb f4                	jmp    17c5 <phase_1+0x18>

00000000000017d1 <phase_2>:
    17d1:	f3 0f 1e fa          	endbr64 
    17d5:	53                   	push   %rbx
    17d6:	48 83 ec 20          	sub    $0x20,%rsp
    17da:	64 48 8b 04 25 28 00 	mov    %fs:0x28,%rax
    17e1:	00 00 
    17e3:	48 89 44 24 18       	mov    %rax,0x18(%rsp)
    17e8:	31 c0                	xor    %eax,%eax
    17ea:	48 89 e6             	mov    %rsp,%rsi
    17ed:	e8 43 0a 00 00       	call   2235 <read_six_numbers>
    17f2:	83 3c 24 00          	cmpl   $0x0,(%rsp)
    17f6:	75 07                	jne    17ff <phase_2+0x2e>
    17f8:	83 7c 24 04 01       	cmpl   $0x1,0x4(%rsp)
    17fd:	74 05                	je     1804 <phase_2+0x33>
    17ff:	e8 ab 09 00 00       	call   21af <explode_bomb>
    1804:	bb 02 00 00 00       	mov    $0x2,%ebx
    1809:	eb 08                	jmp    1813 <phase_2+0x42>
    180b:	e8 9f 09 00 00       	call   21af <explode_bomb>
    1810:	83 c3 01             	add    $0x1,%ebx
    1813:	83 fb 05             	cmp    $0x5,%ebx
    1816:	7f 1b                	jg     1833 <phase_2+0x62>
    1818:	48 63 d3             	movslq %ebx,%rdx
    181b:	8d 4b fe             	lea    -0x2(%rbx),%ecx
    181e:	48 63 c9             	movslq %ecx,%rcx
    1821:	8d 43 ff             	lea    -0x1(%rbx),%eax
    1824:	48 98                	cltq   
    1826:	8b 04 84             	mov    (%rsp,%rax,4),%eax
    1829:	03 04 8c             	add    (%rsp,%rcx,4),%eax
    182c:	39 04 94             	cmp    %eax,(%rsp,%rdx,4)
    182f:	74 df                	je     1810 <phase_2+0x3f>
    1831:	eb d8                	jmp    180b <phase_2+0x3a>
    1833:	48 8b 44 24 18       	mov    0x18(%rsp),%rax
    1838:	64 48 33 04 25 28 00 	xor    %fs:0x28,%rax
    183f:	00 00 
    1841:	75 06                	jne    1849 <phase_2+0x78>
    1843:	48 83 c4 20          	add    $0x20,%rsp
    1847:	5b                   	pop    %rbx
    1848:	c3                   	ret    
    1849:	e8 32 fa ff ff       	call   1280 <__stack_chk_fail@plt>

000000000000184e <phase_3>:
    184e:	f3 0f 1e fa          	endbr64 
    1852:	48 83 ec 28          	sub    $0x28,%rsp
    1856:	64 48 8b 04 25 28 00 	mov    %fs:0x28,%rax
    185d:	00 00 
    185f:	48 89 44 24 18       	mov    %rax,0x18(%rsp)
    1864:	31 c0                	xor    %eax,%eax
    1866:	48 8d 4c 24 0f       	lea    0xf(%rsp),%rcx
    186b:	48 8d 54 24 10       	lea    0x10(%rsp),%rdx
    1870:	4c 8d 44 24 14       	lea    0x14(%rsp),%r8
    1875:	48 8d 35 35 29 00 00 	lea    0x2935(%rip),%rsi        # 41b1 <_IO_stdin_used+0x1b1>
    187c:	e8 af fa ff ff       	call   1330 <__isoc99_sscanf@plt>
    1881:	83 f8 02             	cmp    $0x2,%eax
    1884:	7e 20                	jle    18a6 <phase_3+0x58>
    1886:	8b 44 24 10          	mov    0x10(%rsp),%eax
    188a:	83 f8 07             	cmp    $0x7,%eax
    188d:	0f 87 17 01 00 00    	ja     19aa <phase_3+0x15c>
    1893:	89 c0                	mov    %eax,%eax
    1895:	48 8d 15 24 2b 00 00 	lea    0x2b24(%rip),%rdx        # 43c0 <_IO_stdin_used+0x3c0>
    189c:	48 63 04 82          	movslq (%rdx,%rax,4),%rax
    18a0:	48 01 d0             	add    %rdx,%rax
    18a3:	3e ff e0             	notrack jmp *%rax
    18a6:	e8 04 09 00 00       	call   21af <explode_bomb>
    18ab:	eb d9                	jmp    1886 <phase_3+0x38>
    18ad:	81 7c 24 14 ad 01 00 	cmpl   $0x1ad,0x14(%rsp)
    18b4:	00 
    18b5:	75 0a                	jne    18c1 <phase_3+0x73>
    18b7:	b8 68 00 00 00       	mov    $0x68,%eax
    18bc:	e9 f3 00 00 00       	jmp    19b4 <phase_3+0x166>
    18c1:	e8 e9 08 00 00       	call   21af <explode_bomb>
    18c6:	b8 68 00 00 00       	mov    $0x68,%eax
    18cb:	e9 e4 00 00 00       	jmp    19b4 <phase_3+0x166>
    18d0:	81 7c 24 14 bf 00 00 	cmpl   $0xbf,0x14(%rsp)
    18d7:	00 
    18d8:	75 0a                	jne    18e4 <phase_3+0x96>
    18da:	b8 71 00 00 00       	mov    $0x71,%eax
    18df:	e9 d0 00 00 00       	jmp    19b4 <phase_3+0x166>
    18e4:	e8 c6 08 00 00       	call   21af <explode_bomb>
    18e9:	b8 71 00 00 00       	mov    $0x71,%eax
    18ee:	e9 c1 00 00 00       	jmp    19b4 <phase_3+0x166>
    18f3:	81 7c 24 14 aa 03 00 	cmpl   $0x3aa,0x14(%rsp)
    18fa:	00 
    18fb:	75 0a                	jne    1907 <phase_3+0xb9>
    18fd:	b8 62 00 00 00       	mov    $0x62,%eax
    1902:	e9 ad 00 00 00       	jmp    19b4 <phase_3+0x166>
    1907:	e8 a3 08 00 00       	call   21af <explode_bomb>
    190c:	b8 62 00 00 00       	mov    $0x62,%eax
    1911:	e9 9e 00 00 00       	jmp    19b4 <phase_3+0x166>
    1916:	81 7c 24 14 5d 03 00 	cmpl   $0x35d,0x14(%rsp)
    191d:	00 
    191e:	75 0a                	jne    192a <phase_3+0xdc>
    1920:	b8 70 00 00 00       	mov    $0x70,%eax
    1925:	e9 8a 00 00 00       	jmp    19b4 <phase_3+0x166>
    192a:	e8 80 08 00 00       	call   21af <explode_bomb>
    192f:	b8 70 00 00 00       	mov    $0x70,%eax
    1934:	eb 7e                	jmp    19b4 <phase_3+0x166>
    1936:	81 7c 24 14 10 02 00 	cmpl   $0x210,0x14(%rsp)
    193d:	00 
    193e:	75 07                	jne    1947 <phase_3+0xf9>
    1940:	b8 76 00 00 00       	mov    $0x76,%eax
    1945:	eb 6d                	jmp    19b4 <phase_3+0x166>
    1947:	e8 63 08 00 00       	call   21af <explode_bomb>
    194c:	b8 76 00 00 00       	mov    $0x76,%eax
    1951:	eb 61                	jmp    19b4 <phase_3+0x166>
    1953:	81 7c 24 14 ce 00 00 	cmpl   $0xce,0x14(%rsp)
    195a:	00 
    195b:	75 07                	jne    1964 <phase_3+0x116>
    195d:	b8 71 00 00 00       	mov    $0x71,%eax
    1962:	eb 50                	jmp    19b4 <phase_3+0x166>
    1964:	e8 46 08 00 00       	call   21af <explode_bomb>
    1969:	b8 71 00 00 00       	mov    $0x71,%eax
    196e:	eb 44                	jmp    19b4 <phase_3+0x166>
    1970:	81 7c 24 14 b9 01 00 	cmpl   $0x1b9,0x14(%rsp)
    1977:	00 
    1978:	75 07                	jne    1981 <phase_3+0x133>
    197a:	b8 65 00 00 00       	mov    $0x65,%eax
    197f:	eb 33                	jmp    19b4 <phase_3+0x166>
    1981:	e8 29 08 00 00       	call   21af <explode_bomb>
    1986:	b8 65 00 00 00       	mov    $0x65,%eax
    198b:	eb 27                	jmp    19b4 <phase_3+0x166>
    198d:	81 7c 24 14 88 01 00 	cmpl   $0x188,0x14(%rsp)
    1994:	00 
    1995:	75 07                	jne    199e <phase_3+0x150>
    1997:	b8 62 00 00 00       	mov    $0x62,%eax
    199c:	eb 16                	jmp    19b4 <phase_3+0x166>
    199e:	e8 0c 08 00 00       	call   21af <explode_bomb>
    19a3:	b8 62 00 00 00       	mov    $0x62,%eax
    19a8:	eb 0a                	jmp    19b4 <phase_3+0x166>
    19aa:	e8 00 08 00 00       	call   21af <explode_bomb>
    19af:	b8 79 00 00 00       	mov    $0x79,%eax
    19b4:	38 44 24 0f          	cmp    %al,0xf(%rsp)
    19b8:	75 15                	jne    19cf <phase_3+0x181>
    19ba:	48 8b 44 24 18       	mov    0x18(%rsp),%rax
    19bf:	64 48 33 04 25 28 00 	xor    %fs:0x28,%rax
    19c6:	00 00 
    19c8:	75 0c                	jne    19d6 <phase_3+0x188>
    19ca:	48 83 c4 28          	add    $0x28,%rsp
    19ce:	c3                   	ret    
    19cf:	e8 db 07 00 00       	call   21af <explode_bomb>
    19d4:	eb e4                	jmp    19ba <phase_3+0x16c>
    19d6:	e8 a5 f8 ff ff       	call   1280 <__stack_chk_fail@plt>

00000000000019db <func4>:
    19db:	f3 0f 1e fa          	endbr64 
    19df:	48 83 ec 08          	sub    $0x8,%rsp
    19e3:	89 d1                	mov    %edx,%ecx
    19e5:	29 f1                	sub    %esi,%ecx
    19e7:	89 c8                	mov    %ecx,%eax
    19e9:	c1 e8 1f             	shr    $0x1f,%eax
    19ec:	01 c8                	add    %ecx,%eax
    19ee:	d1 f8                	sar    %eax
    19f0:	01 f0                	add    %esi,%eax
    19f2:	39 f8                	cmp    %edi,%eax
    19f4:	7f 0c                	jg     1a02 <func4+0x27>
    19f6:	7c 16                	jl     1a0e <func4+0x33>
    19f8:	b8 00 00 00 00       	mov    $0x0,%eax
    19fd:	48 83 c4 08          	add    $0x8,%rsp
    1a01:	c3                   	ret    
    1a02:	8d 50 ff             	lea    -0x1(%rax),%edx
    1a05:	e8 d1 ff ff ff       	call   19db <func4>
    1a0a:	01 c0                	add    %eax,%eax
    1a0c:	eb ef                	jmp    19fd <func4+0x22>
    1a0e:	8d 70 01             	lea    0x1(%rax),%esi
    1a11:	e8 c5 ff ff ff       	call   19db <func4>
    1a16:	8d 44 00 01          	lea    0x1(%rax,%rax,1),%eax
    1a1a:	eb e1                	jmp    19fd <func4+0x22>

0000000000001a1c <phase_4>:
    1a1c:	f3 0f 1e fa          	endbr64 
    1a20:	48 83 ec 18          	sub    $0x18,%rsp
    1a24:	64 48 8b 04 25 28 00 	mov    %fs:0x28,%rax
    1a2b:	00 00 
    1a2d:	48 89 44 24 08       	mov    %rax,0x8(%rsp)
    1a32:	31 c0                	xor    %eax,%eax
    1a34:	48 8d 4c 24 04       	lea    0x4(%rsp),%rcx
    1a39:	48 89 e2             	mov    %rsp,%rdx
    1a3c:	48 8d 35 67 2d 00 00 	lea    0x2d67(%rip),%rsi        # 47aa <transition_table+0x38a>
    1a43:	e8 e8 f8 ff ff       	call   1330 <__isoc99_sscanf@plt>
    1a48:	83 f8 02             	cmp    $0x2,%eax
    1a4b:	75 0c                	jne    1a59 <phase_4+0x3d>
    1a4d:	8b 04 24             	mov    (%rsp),%eax
    1a50:	85 c0                	test   %eax,%eax
    1a52:	78 05                	js     1a59 <phase_4+0x3d>
    1a54:	83 f8 0e             	cmp    $0xe,%eax
    1a57:	7e 05                	jle    1a5e <phase_4+0x42>
    1a59:	e8 51 07 00 00       	call   21af <explode_bomb>
    1a5e:	ba 0e 00 00 00       	mov    $0xe,%edx
    1a63:	be 00 00 00 00       	mov    $0x0,%esi
    1a68:	8b 3c 24             	mov    (%rsp),%edi
    1a6b:	e8 6b ff ff ff       	call   19db <func4>
    1a70:	83 f8 07             	cmp    $0x7,%eax
    1a73:	75 07                	jne    1a7c <phase_4+0x60>
    1a75:	83 7c 24 04 07       	cmpl   $0x7,0x4(%rsp)
    1a7a:	74 05                	je     1a81 <phase_4+0x65>
    1a7c:	e8 2e 07 00 00       	call   21af <explode_bomb>
    1a81:	48 8b 44 24 08       	mov    0x8(%rsp),%rax
    1a86:	64 48 33 04 25 28 00 	xor    %fs:0x28,%rax
    1a8d:	00 00 
    1a8f:	75 05                	jne    1a96 <phase_4+0x7a>
    1a91:	48 83 c4 18          	add    $0x18,%rsp
    1a95:	c3                   	ret    
    1a96:	e8 e5 f7 ff ff       	call   1280 <__stack_chk_fail@plt>

0000000000001a9b <phase_5>:
    1a9b:	f3 0f 1e fa          	endbr64 
    1a9f:	48 83 ec 18          	sub    $0x18,%rsp
    1aa3:	64 48 8b 04 25 28 00 	mov    %fs:0x28,%rax
    1aaa:	00 00 
    1aac:	48 89 44 24 08       	mov    %rax,0x8(%rsp)
    1ab1:	31 c0                	xor    %eax,%eax
    1ab3:	48 8d 4c 24 04       	lea    0x4(%rsp),%rcx
    1ab8:	48 89 e2             	mov    %rsp,%rdx
    1abb:	48 8d 35 e8 2c 00 00 	lea    0x2ce8(%rip),%rsi        # 47aa <transition_table+0x38a>
    1ac2:	e8 69 f8 ff ff       	call   1330 <__isoc99_sscanf@plt>
    1ac7:	83 f8 01             	cmp    $0x1,%eax
    1aca:	7e 31                	jle    1afd <phase_5+0x62>
    1acc:	8b 04 24             	mov    (%rsp),%eax
    1acf:	83 e0 0f             	and    $0xf,%eax
    1ad2:	89 04 24             	mov    %eax,(%rsp)
    1ad5:	b9 00 00 00 00       	mov    $0x0,%ecx
    1ada:	ba 00 00 00 00       	mov    $0x0,%edx
    1adf:	8b 04 24             	mov    (%rsp),%eax
    1ae2:	83 f8 0f             	cmp    $0xf,%eax
    1ae5:	74 1d                	je     1b04 <phase_5+0x69>
    1ae7:	83 c2 01             	add    $0x1,%edx
    1aea:	48 98                	cltq   
    1aec:	48 8d 35 ed 28 00 00 	lea    0x28ed(%rip),%rsi        # 43e0 <array.3500>
    1af3:	8b 04 86             	mov    (%rsi,%rax,4),%eax
    1af6:	89 04 24             	mov    %eax,(%rsp)
    1af9:	01 c1                	add    %eax,%ecx
    1afb:	eb e2                	jmp    1adf <phase_5+0x44>
    1afd:	e8 ad 06 00 00       	call   21af <explode_bomb>
    1b02:	eb c8                	jmp    1acc <phase_5+0x31>
    1b04:	83 fa 0f             	cmp    $0xf,%edx
    1b07:	75 06                	jne    1b0f <phase_5+0x74>
    1b09:	39 4c 24 04          	cmp    %ecx,0x4(%rsp)
    1b0d:	74 05                	je     1b14 <phase_5+0x79>
    1b0f:	e8 9b 06 00 00       	call   21af <explode_bomb>
    1b14:	48 8b 44 24 08       	mov    0x8(%rsp),%rax
    1b19:	64 48 33 04 25 28 00 	xor    %fs:0x28,%rax
    1b20:	00 00 
    1b22:	75 05                	jne    1b29 <phase_5+0x8e>
    1b24:	48 83 c4 18          	add    $0x18,%rsp
    1b28:	c3                   	ret    
    1b29:	e8 52 f7 ff ff       	call   1280 <__stack_chk_fail@plt>

0000000000001b2e <phase_6>:
    1b2e:	f3 0f 1e fa          	endbr64 
    1b32:	41 54                	push   %r12
    1b34:	55                   	push   %rbp
    1b35:	53                   	push   %rbx
    1b36:	48 83 ec 60          	sub    $0x60,%rsp
    1b3a:	64 48 8b 04 25 28 00 	mov    %fs:0x28,%rax
    1b41:	00 00 
    1b43:	48 89 44 24 58       	mov    %rax,0x58(%rsp)
    1b48:	31 c0                	xor    %eax,%eax
    1b4a:	48 89 e6             	mov    %rsp,%rsi
    1b4d:	e8 e3 06 00 00       	call   2235 <read_six_numbers>
    1b52:	bd 00 00 00 00       	mov    $0x0,%ebp
    1b57:	eb 27                	jmp    1b80 <phase_6+0x52>
    1b59:	e8 51 06 00 00       	call   21af <explode_bomb>
    1b5e:	eb 33                	jmp    1b93 <phase_6+0x65>
    1b60:	e8 4a 06 00 00       	call   21af <explode_bomb>
    1b65:	83 c3 01             	add    $0x1,%ebx
    1b68:	83 fb 05             	cmp    $0x5,%ebx
    1b6b:	7f 10                	jg     1b7d <phase_6+0x4f>
    1b6d:	48 63 c5             	movslq %ebp,%rax
    1b70:	48 63 d3             	movslq %ebx,%rdx
    1b73:	8b 3c 94             	mov    (%rsp,%rdx,4),%edi
    1b76:	39 3c 84             	cmp    %edi,(%rsp,%rax,4)
    1b79:	75 ea                	jne    1b65 <phase_6+0x37>
    1b7b:	eb e3                	jmp    1b60 <phase_6+0x32>
    1b7d:	44 89 e5             	mov    %r12d,%ebp
    1b80:	83 fd 05             	cmp    $0x5,%ebp
    1b83:	7f 17                	jg     1b9c <phase_6+0x6e>
    1b85:	48 63 c5             	movslq %ebp,%rax
    1b88:	8b 04 84             	mov    (%rsp,%rax,4),%eax
    1b8b:	83 e8 01             	sub    $0x1,%eax
    1b8e:	83 f8 05             	cmp    $0x5,%eax
    1b91:	77 c6                	ja     1b59 <phase_6+0x2b>
    1b93:	44 8d 65 01          	lea    0x1(%rbp),%r12d
    1b97:	44 89 e3             	mov    %r12d,%ebx
    1b9a:	eb cc                	jmp    1b68 <phase_6+0x3a>
    1b9c:	b8 00 00 00 00       	mov    $0x0,%eax
    1ba1:	eb 11                	jmp    1bb4 <phase_6+0x86>
    1ba3:	48 63 c8             	movslq %eax,%rcx
    1ba6:	ba 07 00 00 00       	mov    $0x7,%edx
    1bab:	2b 14 8c             	sub    (%rsp,%rcx,4),%edx
    1bae:	89 14 8c             	mov    %edx,(%rsp,%rcx,4)
    1bb1:	83 c0 01             	add    $0x1,%eax
    1bb4:	83 f8 05             	cmp    $0x5,%eax
    1bb7:	7e ea                	jle    1ba3 <phase_6+0x75>
    1bb9:	be 00 00 00 00       	mov    $0x0,%esi
    1bbe:	eb 17                	jmp    1bd7 <phase_6+0xa9>
    1bc0:	48 8b 52 08          	mov    0x8(%rdx),%rdx
    1bc4:	83 c0 01             	add    $0x1,%eax
    1bc7:	48 63 ce             	movslq %esi,%rcx
    1bca:	39 04 8c             	cmp    %eax,(%rsp,%rcx,4)
    1bcd:	7f f1                	jg     1bc0 <phase_6+0x92>
    1bcf:	48 89 54 cc 20       	mov    %rdx,0x20(%rsp,%rcx,8)
    1bd4:	83 c6 01             	add    $0x1,%esi
    1bd7:	83 fe 05             	cmp    $0x5,%esi
    1bda:	7f 0e                	jg     1bea <phase_6+0xbc>
    1bdc:	b8 01 00 00 00       	mov    $0x1,%eax
    1be1:	48 8d 15 68 64 00 00 	lea    0x6468(%rip),%rdx        # 8050 <node1>
    1be8:	eb dd                	jmp    1bc7 <phase_6+0x99>
    1bea:	48 8b 5c 24 20       	mov    0x20(%rsp),%rbx
    1bef:	48 89 d9             	mov    %rbx,%rcx
    1bf2:	b8 01 00 00 00       	mov    $0x1,%eax
    1bf7:	eb 12                	jmp    1c0b <phase_6+0xdd>
    1bf9:	48 63 d0             	movslq %eax,%rdx
    1bfc:	48 8b 54 d4 20       	mov    0x20(%rsp,%rdx,8),%rdx
    1c01:	48 89 51 08          	mov    %rdx,0x8(%rcx)
    1c05:	83 c0 01             	add    $0x1,%eax
    1c08:	48 89 d1             	mov    %rdx,%rcx
    1c0b:	83 f8 05             	cmp    $0x5,%eax
    1c0e:	7e e9                	jle    1bf9 <phase_6+0xcb>
    1c10:	48 c7 41 08 00 00 00 	movq   $0x0,0x8(%rcx)
    1c17:	00 
    1c18:	bd 00 00 00 00       	mov    $0x0,%ebp
    1c1d:	eb 07                	jmp    1c26 <phase_6+0xf8>
    1c1f:	48 8b 5b 08          	mov    0x8(%rbx),%rbx
    1c23:	83 c5 01             	add    $0x1,%ebp
    1c26:	83 fd 04             	cmp    $0x4,%ebp
    1c29:	7f 11                	jg     1c3c <phase_6+0x10e>
    1c2b:	48 8b 43 08          	mov    0x8(%rbx),%rax
    1c2f:	8b 00                	mov    (%rax),%eax
    1c31:	39 03                	cmp    %eax,(%rbx)
    1c33:	7d ea                	jge    1c1f <phase_6+0xf1>
    1c35:	e8 75 05 00 00       	call   21af <explode_bomb>
    1c3a:	eb e3                	jmp    1c1f <phase_6+0xf1>
    1c3c:	48 8b 44 24 58       	mov    0x58(%rsp),%rax
    1c41:	64 48 33 04 25 28 00 	xor    %fs:0x28,%rax
    1c48:	00 00 
    1c4a:	75 09                	jne    1c55 <phase_6+0x127>
    1c4c:	48 83 c4 60          	add    $0x60,%rsp
    1c50:	5b                   	pop    %rbx
    1c51:	5d                   	pop    %rbp
    1c52:	41 5c                	pop    %r12
    1c54:	c3                   	ret    
    1c55:	e8 26 f6 ff ff       	call   1280 <__stack_chk_fail@plt>

0000000000001c5a <emulate_fsm>:
    1c5a:	f3 0f 1e fa          	endbr64 
    1c5e:	55                   	push   %rbp
    1c5f:	53                   	push   %rbx
    1c60:	48 83 ec 08          	sub    $0x8,%rsp
    1c64:	89 fd                	mov    %edi,%ebp
    1c66:	48 89 f3             	mov    %rsi,%rbx
    1c69:	eb 27                	jmp    1c92 <emulate_fsm+0x38>
    1c6b:	0f be 03             	movsbl (%rbx),%eax
    1c6e:	83 e8 30             	sub    $0x30,%eax
    1c71:	48 63 ed             	movslq %ebp,%rbp
    1c74:	48 98                	cltq   
    1c76:	48 8d 3c c5 00 00 00 	lea    0x0(,%rax,8),%rdi
    1c7d:	00 
    1c7e:	48 29 c7             	sub    %rax,%rdi
    1c81:	48 01 ef             	add    %rbp,%rdi
    1c84:	48 8d 05 95 27 00 00 	lea    0x2795(%rip),%rax        # 4420 <transition_table>
    1c8b:	8b 2c b8             	mov    (%rax,%rdi,4),%ebp
    1c8e:	48 83 c3 01          	add    $0x1,%rbx
    1c92:	0f b6 03             	movzbl (%rbx),%eax
    1c95:	84 c0                	test   %al,%al
    1c97:	74 0e                	je     1ca7 <emulate_fsm+0x4d>
    1c99:	83 e8 30             	sub    $0x30,%eax
    1c9c:	3c 01                	cmp    $0x1,%al
    1c9e:	76 cb                	jbe    1c6b <emulate_fsm+0x11>
    1ca0:	e8 0a 05 00 00       	call   21af <explode_bomb>
    1ca5:	eb c4                	jmp    1c6b <emulate_fsm+0x11>
    1ca7:	89 e8                	mov    %ebp,%eax
    1ca9:	48 83 c4 08          	add    $0x8,%rsp
    1cad:	5b                   	pop    %rbx
    1cae:	5d                   	pop    %rbp
    1caf:	c3                   	ret    

0000000000001cb0 <check_synchronizing_sequence>:
    1cb0:	f3 0f 1e fa          	endbr64 
    1cb4:	41 54                	push   %r12
    1cb6:	55                   	push   %rbp
    1cb7:	53                   	push   %rbx
    1cb8:	48 89 fd             	mov    %rdi,%rbp
    1cbb:	48 89 fe             	mov    %rdi,%rsi
    1cbe:	bf 00 00 00 00       	mov    $0x0,%edi
    1cc3:	e8 92 ff ff ff       	call   1c5a <emulate_fsm>
    1cc8:	41 89 c4             	mov    %eax,%r12d
    1ccb:	bb 01 00 00 00       	mov    $0x1,%ebx
    1cd0:	83 fb 06             	cmp    $0x6,%ebx
    1cd3:	7f 14                	jg     1ce9 <check_synchronizing_sequence+0x39>
    1cd5:	48 89 ee             	mov    %rbp,%rsi
    1cd8:	89 df                	mov    %ebx,%edi
    1cda:	e8 7b ff ff ff       	call   1c5a <emulate_fsm>
    1cdf:	44 39 e0             	cmp    %r12d,%eax
    1ce2:	75 0f                	jne    1cf3 <check_synchronizing_sequence+0x43>
    1ce4:	83 c3 01             	add    $0x1,%ebx
    1ce7:	eb e7                	jmp    1cd0 <check_synchronizing_sequence+0x20>
    1ce9:	b8 00 00 00 00       	mov    $0x0,%eax
    1cee:	5b                   	pop    %rbx
    1cef:	5d                   	pop    %rbp
    1cf0:	41 5c                	pop    %r12
    1cf2:	c3                   	ret    
    1cf3:	b8 ff ff ff ff       	mov    $0xffffffff,%eax
    1cf8:	eb f4                	jmp    1cee <check_synchronizing_sequence+0x3e>

0000000000001cfa <secret_phase>:
    1cfa:	f3 0f 1e fa          	endbr64 
    1cfe:	55                   	push   %rbp
    1cff:	53                   	push   %rbx
    1d00:	48 83 ec 18          	sub    $0x18,%rsp
    1d04:	64 48 8b 04 25 28 00 	mov    %fs:0x28,%rax
    1d0b:	00 00 
    1d0d:	48 89 44 24 08       	mov    %rax,0x8(%rsp)
    1d12:	31 c0                	xor    %eax,%eax
    1d14:	e8 61 05 00 00       	call   227a <read_line>
    1d19:	48 89 c5             	mov    %rax,%rbp
    1d1c:	bb 00 00 00 00       	mov    $0x0,%ebx
    1d21:	eb 08                	jmp    1d2b <secret_phase+0x31>
    1d23:	e8 87 04 00 00       	call   21af <explode_bomb>
    1d28:	83 c3 01             	add    $0x1,%ebx
    1d2b:	48 63 c3             	movslq %ebx,%rax
    1d2e:	80 7c 05 00 00       	cmpb   $0x0,0x0(%rbp,%rax,1)
    1d33:	74 07                	je     1d3c <secret_phase+0x42>
    1d35:	83 fb 10             	cmp    $0x10,%ebx
    1d38:	7e ee                	jle    1d28 <secret_phase+0x2e>
    1d3a:	eb e7                	jmp    1d23 <secret_phase+0x29>
    1d3c:	48 89 ef             	mov    %rbp,%rdi
    1d3f:	e8 6c ff ff ff       	call   1cb0 <check_synchronizing_sequence>
    1d44:	85 c0                	test   %eax,%eax
    1d46:	75 51                	jne    1d99 <secret_phase+0x9f>
    1d48:	48 8d 3d 19 25 00 00 	lea    0x2519(%rip),%rdi        # 4268 <_IO_stdin_used+0x268>
    1d4f:	e8 0c f5 ff ff       	call   1260 <puts@plt>
    1d54:	48 8d 3d 5d 25 00 00 	lea    0x255d(%rip),%rdi        # 42b8 <_IO_stdin_used+0x2b8>
    1d5b:	e8 00 f5 ff ff       	call   1260 <puts@plt>
    1d60:	48 8d 3d a9 25 00 00 	lea    0x25a9(%rip),%rdi        # 4310 <_IO_stdin_used+0x310>
    1d67:	e8 f4 f4 ff ff       	call   1260 <puts@plt>
    1d6c:	48 8d 3d 0d 26 00 00 	lea    0x260d(%rip),%rdi        # 4380 <_IO_stdin_used+0x380>
    1d73:	e8 e8 f4 ff ff       	call   1260 <puts@plt>
    1d78:	48 8d 7c 24 04       	lea    0x4(%rsp),%rdi
    1d7d:	e8 43 06 00 00       	call   23c5 <phase_defused>
    1d82:	48 8b 44 24 08       	mov    0x8(%rsp),%rax
    1d87:	64 48 33 04 25 28 00 	xor    %fs:0x28,%rax
    1d8e:	00 00 
    1d90:	75 0e                	jne    1da0 <secret_phase+0xa6>
    1d92:	48 83 c4 18          	add    $0x18,%rsp
    1d96:	5b                   	pop    %rbx
    1d97:	5d                   	pop    %rbp
    1d98:	c3                   	ret    
    1d99:	e8 11 04 00 00       	call   21af <explode_bomb>
    1d9e:	eb a8                	jmp    1d48 <secret_phase+0x4e>
    1da0:	e8 db f4 ff ff       	call   1280 <__stack_chk_fail@plt>

0000000000001da5 <sig_handler>:
    1da5:	f3 0f 1e fa          	endbr64 
    1da9:	50                   	push   %rax
    1daa:	58                   	pop    %rax
    1dab:	48 83 ec 08          	sub    $0x8,%rsp
    1daf:	48 8d 3d a2 26 00 00 	lea    0x26a2(%rip),%rdi        # 4458 <transition_table+0x38>
    1db6:	e8 a5 f4 ff ff       	call   1260 <puts@plt>
    1dbb:	bf 03 00 00 00       	mov    $0x3,%edi
    1dc0:	e8 db f5 ff ff       	call   13a0 <sleep@plt>
    1dc5:	48 8d 35 57 29 00 00 	lea    0x2957(%rip),%rsi        # 4723 <transition_table+0x303>
    1dcc:	bf 01 00 00 00       	mov    $0x1,%edi
    1dd1:	b8 00 00 00 00       	mov    $0x0,%eax
    1dd6:	e8 65 f5 ff ff       	call   1340 <__printf_chk@plt>
    1ddb:	48 8b 3d 7e 66 00 00 	mov    0x667e(%rip),%rdi        # 8460 <stdout@GLIBC_2.2.5>
    1de2:	e8 39 f5 ff ff       	call   1320 <fflush@plt>
    1de7:	bf 01 00 00 00       	mov    $0x1,%edi
    1dec:	e8 af f5 ff ff       	call   13a0 <sleep@plt>
    1df1:	48 8d 3d 33 29 00 00 	lea    0x2933(%rip),%rdi        # 472b <transition_table+0x30b>
    1df8:	e8 63 f4 ff ff       	call   1260 <puts@plt>
    1dfd:	bf 10 00 00 00       	mov    $0x10,%edi
    1e02:	e8 69 f5 ff ff       	call   1370 <exit@plt>

0000000000001e07 <invalid_phase>:
    1e07:	f3 0f 1e fa          	endbr64 
    1e0b:	50                   	push   %rax
    1e0c:	58                   	pop    %rax
    1e0d:	48 83 ec 08          	sub    $0x8,%rsp
    1e11:	48 89 fa             	mov    %rdi,%rdx
    1e14:	48 8d 35 18 29 00 00 	lea    0x2918(%rip),%rsi        # 4733 <transition_table+0x313>
    1e1b:	bf 01 00 00 00       	mov    $0x1,%edi
    1e20:	b8 00 00 00 00       	mov    $0x0,%eax
    1e25:	e8 16 f5 ff ff       	call   1340 <__printf_chk@plt>
    1e2a:	bf 08 00 00 00       	mov    $0x8,%edi
    1e2f:	e8 3c f5 ff ff       	call   1370 <exit@plt>

0000000000001e34 <string_length>:
    1e34:	f3 0f 1e fa          	endbr64 
    1e38:	b8 00 00 00 00       	mov    $0x0,%eax
    1e3d:	80 3f 00             	cmpb   $0x0,(%rdi)
    1e40:	74 09                	je     1e4b <string_length+0x17>
    1e42:	48 83 c7 01          	add    $0x1,%rdi
    1e46:	83 c0 01             	add    $0x1,%eax
    1e49:	eb f2                	jmp    1e3d <string_length+0x9>
    1e4b:	c3                   	ret    

0000000000001e4c <strings_not_equal>:
    1e4c:	f3 0f 1e fa          	endbr64 
    1e50:	41 54                	push   %r12
    1e52:	55                   	push   %rbp
    1e53:	53                   	push   %rbx
    1e54:	48 89 fb             	mov    %rdi,%rbx
    1e57:	48 89 f5             	mov    %rsi,%rbp
    1e5a:	e8 d5 ff ff ff       	call   1e34 <string_length>
    1e5f:	41 89 c4             	mov    %eax,%r12d
    1e62:	48 89 ef             	mov    %rbp,%rdi
    1e65:	e8 ca ff ff ff       	call   1e34 <string_length>
    1e6a:	41 39 c4             	cmp    %eax,%r12d
    1e6d:	75 1d                	jne    1e8c <strings_not_equal+0x40>
    1e6f:	0f b6 03             	movzbl (%rbx),%eax
    1e72:	84 c0                	test   %al,%al
    1e74:	74 0f                	je     1e85 <strings_not_equal+0x39>
    1e76:	38 45 00             	cmp    %al,0x0(%rbp)
    1e79:	75 1b                	jne    1e96 <strings_not_equal+0x4a>
    1e7b:	48 83 c3 01          	add    $0x1,%rbx
    1e7f:	48 83 c5 01          	add    $0x1,%rbp
    1e83:	eb ea                	jmp    1e6f <strings_not_equal+0x23>
    1e85:	b8 00 00 00 00       	mov    $0x0,%eax
    1e8a:	eb 05                	jmp    1e91 <strings_not_equal+0x45>
    1e8c:	b8 01 00 00 00       	mov    $0x1,%eax
    1e91:	5b                   	pop    %rbx
    1e92:	5d                   	pop    %rbp
    1e93:	41 5c                	pop    %r12
    1e95:	c3                   	ret    
    1e96:	b8 01 00 00 00       	mov    $0x1,%eax
    1e9b:	eb f4                	jmp    1e91 <strings_not_equal+0x45>

0000000000001e9d <initialize_bomb>:
    1e9d:	f3 0f 1e fa          	endbr64 
    1ea1:	55                   	push   %rbp
    1ea2:	53                   	push   %rbx
    1ea3:	48 81 ec 00 10 00 00 	sub    $0x1000,%rsp
    1eaa:	48 83 0c 24 00       	orq    $0x0,(%rsp)
    1eaf:	48 81 ec 00 10 00 00 	sub    $0x1000,%rsp
    1eb6:	48 83 0c 24 00       	orq    $0x0,(%rsp)
    1ebb:	48 83 ec 58          	sub    $0x58,%rsp
    1ebf:	64 48 8b 04 25 28 00 	mov    %fs:0x28,%rax
    1ec6:	00 00 
    1ec8:	48 89 84 24 48 20 00 	mov    %rax,0x2048(%rsp)
    1ecf:	00 
    1ed0:	31 c0                	xor    %eax,%eax
    1ed2:	48 8d 35 cc fe ff ff 	lea    -0x134(%rip),%rsi        # 1da5 <sig_handler>
    1ed9:	bf 02 00 00 00       	mov    $0x2,%edi
    1ede:	e8 ed f3 ff ff       	call   12d0 <signal@plt>
    1ee3:	48 89 e7             	mov    %rsp,%rdi
    1ee6:	be 40 00 00 00       	mov    $0x40,%esi
    1eeb:	e8 70 f4 ff ff       	call   1360 <gethostname@plt>
    1ef0:	85 c0                	test   %eax,%eax
    1ef2:	75 06                	jne    1efa <initialize_bomb+0x5d>
    1ef4:	89 c5                	mov    %eax,%ebp
    1ef6:	89 c3                	mov    %eax,%ebx
    1ef8:	eb 19                	jmp    1f13 <initialize_bomb+0x76>
    1efa:	48 8d 3d 8f 25 00 00 	lea    0x258f(%rip),%rdi        # 4490 <transition_table+0x70>
    1f01:	e8 5a f3 ff ff       	call   1260 <puts@plt>
    1f06:	bf 08 00 00 00       	mov    $0x8,%edi
    1f0b:	e8 60 f4 ff ff       	call   1370 <exit@plt>
    1f10:	83 c3 01             	add    $0x1,%ebx
    1f13:	48 63 c3             	movslq %ebx,%rax
    1f16:	48 8d 15 83 61 00 00 	lea    0x6183(%rip),%rdx        # 80a0 <host_table>
    1f1d:	48 8b 3c c2          	mov    (%rdx,%rax,8),%rdi
    1f21:	48 85 ff             	test   %rdi,%rdi
    1f24:	74 11                	je     1f37 <initialize_bomb+0x9a>
    1f26:	48 89 e6             	mov    %rsp,%rsi
    1f29:	e8 02 f3 ff ff       	call   1230 <strcasecmp@plt>
    1f2e:	85 c0                	test   %eax,%eax
    1f30:	75 de                	jne    1f10 <initialize_bomb+0x73>
    1f32:	bd 01 00 00 00       	mov    $0x1,%ebp
    1f37:	85 ed                	test   %ebp,%ebp
    1f39:	74 3b                	je     1f76 <initialize_bomb+0xd9>
    1f3b:	48 8d 7c 24 40       	lea    0x40(%rsp),%rdi
    1f40:	e8 f1 0f 00 00       	call   2f36 <init_driver>
    1f45:	85 c0                	test   %eax,%eax
    1f47:	78 43                	js     1f8c <initialize_bomb+0xef>
    1f49:	bf 04 00 00 00       	mov    $0x4,%edi
    1f4e:	e8 bd f3 ff ff       	call   1310 <malloc@plt>
    1f53:	c7 00 11 fa 23 20    	movl   $0x2023fa11,(%rax)
    1f59:	48 8b 8c 24 48 20 00 	mov    0x2048(%rsp),%rcx
    1f60:	00 
    1f61:	64 48 33 0c 25 28 00 	xor    %fs:0x28,%rcx
    1f68:	00 00 
    1f6a:	75 45                	jne    1fb1 <initialize_bomb+0x114>
    1f6c:	48 81 c4 58 20 00 00 	add    $0x2058,%rsp
    1f73:	5b                   	pop    %rbx
    1f74:	5d                   	pop    %rbp
    1f75:	c3                   	ret    
    1f76:	48 8d 3d 4b 25 00 00 	lea    0x254b(%rip),%rdi        # 44c8 <transition_table+0xa8>
    1f7d:	e8 de f2 ff ff       	call   1260 <puts@plt>
    1f82:	bf 08 00 00 00       	mov    $0x8,%edi
    1f87:	e8 e4 f3 ff ff       	call   1370 <exit@plt>
    1f8c:	48 8d 54 24 40       	lea    0x40(%rsp),%rdx
    1f91:	48 8d 35 ac 27 00 00 	lea    0x27ac(%rip),%rsi        # 4744 <transition_table+0x324>
    1f98:	bf 01 00 00 00       	mov    $0x1,%edi
    1f9d:	b8 00 00 00 00       	mov    $0x0,%eax
    1fa2:	e8 99 f3 ff ff       	call   1340 <__printf_chk@plt>
    1fa7:	bf 08 00 00 00       	mov    $0x8,%edi
    1fac:	e8 bf f3 ff ff       	call   1370 <exit@plt>
    1fb1:	e8 ca f2 ff ff       	call   1280 <__stack_chk_fail@plt>

0000000000001fb6 <initialize_bomb_solve>:
    1fb6:	f3 0f 1e fa          	endbr64 
    1fba:	c3                   	ret    

0000000000001fbb <blank_line>:
    1fbb:	f3 0f 1e fa          	endbr64 
    1fbf:	55                   	push   %rbp
    1fc0:	53                   	push   %rbx
    1fc1:	48 83 ec 08          	sub    $0x8,%rsp
    1fc5:	48 89 fd             	mov    %rdi,%rbp
    1fc8:	0f b6 5d 00          	movzbl 0x0(%rbp),%ebx
    1fcc:	84 db                	test   %bl,%bl
    1fce:	74 1e                	je     1fee <blank_line+0x33>
    1fd0:	e8 db f3 ff ff       	call   13b0 <__ctype_b_loc@plt>
    1fd5:	48 8b 00             	mov    (%rax),%rax
    1fd8:	48 83 c5 01          	add    $0x1,%rbp
    1fdc:	48 0f be db          	movsbq %bl,%rbx
    1fe0:	f6 44 58 01 20       	testb  $0x20,0x1(%rax,%rbx,2)
    1fe5:	75 e1                	jne    1fc8 <blank_line+0xd>
    1fe7:	b8 00 00 00 00       	mov    $0x0,%eax
    1fec:	eb 05                	jmp    1ff3 <blank_line+0x38>
    1fee:	b8 01 00 00 00       	mov    $0x1,%eax
    1ff3:	48 83 c4 08          	add    $0x8,%rsp
    1ff7:	5b                   	pop    %rbx
    1ff8:	5d                   	pop    %rbp
    1ff9:	c3                   	ret    

0000000000001ffa <skip>:
    1ffa:	f3 0f 1e fa          	endbr64 
    1ffe:	53                   	push   %rbx
    1fff:	48 63 15 86 64 00 00 	movslq 0x6486(%rip),%rdx        # 848c <num_input_strings>
    2006:	48 89 d0             	mov    %rdx,%rax
    2009:	48 c1 e0 04          	shl    $0x4,%rax
    200d:	48 29 d0             	sub    %rdx,%rax
    2010:	48 8d 15 89 64 00 00 	lea    0x6489(%rip),%rdx        # 84a0 <input_strings>
    2017:	48 8d 3c c2          	lea    (%rdx,%rax,8),%rdi
    201b:	48 8b 15 6e 64 00 00 	mov    0x646e(%rip),%rdx        # 8490 <infile>
    2022:	be 78 00 00 00       	mov    $0x78,%esi
    2027:	e8 94 f2 ff ff       	call   12c0 <fgets@plt>
    202c:	48 89 c3             	mov    %rax,%rbx
    202f:	48 85 c0             	test   %rax,%rax
    2032:	74 0c                	je     2040 <skip+0x46>
    2034:	48 89 c7             	mov    %rax,%rdi
    2037:	e8 7f ff ff ff       	call   1fbb <blank_line>
    203c:	85 c0                	test   %eax,%eax
    203e:	75 bf                	jne    1fff <skip+0x5>
    2040:	48 89 d8             	mov    %rbx,%rax
    2043:	5b                   	pop    %rbx
    2044:	c3                   	ret    

0000000000002045 <send_msg>:
    2045:	f3 0f 1e fa          	endbr64 
    2049:	55                   	push   %rbp
    204a:	53                   	push   %rbx
    204b:	4c 8d 9c 24 00 c0 ff 	lea    -0x4000(%rsp),%r11
    2052:	ff 
    2053:	48 81 ec 00 10 00 00 	sub    $0x1000,%rsp
    205a:	48 83 0c 24 00       	orq    $0x0,(%rsp)
    205f:	4c 39 dc             	cmp    %r11,%rsp
    2062:	75 ef                	jne    2053 <send_msg+0xe>
    2064:	48 83 ec 18          	sub    $0x18,%rsp
    2068:	41 89 f8             	mov    %edi,%r8d
    206b:	48 89 f3             	mov    %rsi,%rbx
    206e:	64 48 8b 04 25 28 00 	mov    %fs:0x28,%rax
    2075:	00 00 
    2077:	48 89 84 24 08 40 00 	mov    %rax,0x4008(%rsp)
    207e:	00 
    207f:	31 c0                	xor    %eax,%eax
    2081:	8b 35 05 64 00 00    	mov    0x6405(%rip),%esi        # 848c <num_input_strings>
    2087:	8d 46 ff             	lea    -0x1(%rsi),%eax
    208a:	48 98                	cltq   
    208c:	48 89 c2             	mov    %rax,%rdx
    208f:	48 c1 e2 04          	shl    $0x4,%rdx
    2093:	48 29 c2             	sub    %rax,%rdx
    2096:	48 89 d0             	mov    %rdx,%rax
    2099:	48 8d 15 00 64 00 00 	lea    0x6400(%rip),%rdx        # 84a0 <input_strings>
    20a0:	48 8d 14 c2          	lea    (%rdx,%rax,8),%rdx
    20a4:	48 c7 c1 ff ff ff ff 	mov    $0xffffffffffffffff,%rcx
    20ab:	b8 00 00 00 00       	mov    $0x0,%eax
    20b0:	48 89 d7             	mov    %rdx,%rdi
    20b3:	f2 ae                	repnz scas %es:(%rdi),%al
    20b5:	48 89 c8             	mov    %rcx,%rax
    20b8:	48 f7 d0             	not    %rax
    20bb:	48 83 c0 63          	add    $0x63,%rax
    20bf:	48 3d 00 20 00 00    	cmp    $0x2000,%rax
    20c5:	0f 87 9c 00 00 00    	ja     2167 <send_msg+0x122>
    20cb:	45 85 c0             	test   %r8d,%r8d
    20ce:	0f 84 b3 00 00 00    	je     2187 <send_msg+0x142>
    20d4:	48 8d 05 8c 26 00 00 	lea    0x268c(%rip),%rax        # 4767 <transition_table+0x347>
    20db:	48 89 e5             	mov    %rsp,%rbp
    20de:	48 83 ec 08          	sub    $0x8,%rsp
    20e2:	52                   	push   %rdx
    20e3:	56                   	push   %rsi
    20e4:	50                   	push   %rax
    20e5:	4c 8d 0d 54 57 00 00 	lea    0x5754(%rip),%r9        # 7840 <authkey>
    20ec:	44 8b 05 4d 5f 00 00 	mov    0x5f4d(%rip),%r8d        # 8040 <bomb_id>
    20f3:	48 8d 0d 75 26 00 00 	lea    0x2675(%rip),%rcx        # 476f <transition_table+0x34f>
    20fa:	ba 00 20 00 00       	mov    $0x2000,%edx
    20ff:	be 01 00 00 00       	mov    $0x1,%esi
    2104:	48 89 ef             	mov    %rbp,%rdi
    2107:	b8 00 00 00 00       	mov    $0x0,%eax
    210c:	e8 af f2 ff ff       	call   13c0 <__sprintf_chk@plt>
    2111:	48 83 c4 20          	add    $0x20,%rsp
    2115:	4c 8d 8c 24 00 20 00 	lea    0x2000(%rsp),%r9
    211c:	00 
    211d:	41 b8 00 00 00 00    	mov    $0x0,%r8d
    2123:	48 89 e9             	mov    %rbp,%rcx
    2126:	48 8d 15 13 4f 00 00 	lea    0x4f13(%rip),%rdx        # 7040 <lab>
    212d:	48 8d 35 0c 53 00 00 	lea    0x530c(%rip),%rsi        # 7440 <course>
    2134:	48 8d 3d 05 5b 00 00 	lea    0x5b05(%rip),%rdi        # 7c40 <userid>
    213b:	e8 06 10 00 00       	call   3146 <driver_post>
    2140:	c7 03 01 00 00 00    	movl   $0x1,(%rbx)
    2146:	85 c0                	test   %eax,%eax
    2148:	78 49                	js     2193 <send_msg+0x14e>
    214a:	48 8b 84 24 08 40 00 	mov    0x4008(%rsp),%rax
    2151:	00 
    2152:	64 48 33 04 25 28 00 	xor    %fs:0x28,%rax
    2159:	00 00 
    215b:	75 4d                	jne    21aa <send_msg+0x165>
    215d:	48 81 c4 18 40 00 00 	add    $0x4018,%rsp
    2164:	5b                   	pop    %rbx
    2165:	5d                   	pop    %rbp
    2166:	c3                   	ret    
    2167:	48 8d 35 92 23 00 00 	lea    0x2392(%rip),%rsi        # 4500 <transition_table+0xe0>
    216e:	bf 01 00 00 00       	mov    $0x1,%edi
    2173:	b8 00 00 00 00       	mov    $0x0,%eax
    2178:	e8 c3 f1 ff ff       	call   1340 <__printf_chk@plt>
    217d:	bf 08 00 00 00       	mov    $0x8,%edi
    2182:	e8 e9 f1 ff ff       	call   1370 <exit@plt>
    2187:	48 8d 05 d0 25 00 00 	lea    0x25d0(%rip),%rax        # 475e <transition_table+0x33e>
    218e:	e9 48 ff ff ff       	jmp    20db <send_msg+0x96>
    2193:	48 8d bc 24 00 20 00 	lea    0x2000(%rsp),%rdi
    219a:	00 
    219b:	e8 c0 f0 ff ff       	call   1260 <puts@plt>
    21a0:	bf 00 00 00 00       	mov    $0x0,%edi
    21a5:	e8 c6 f1 ff ff       	call   1370 <exit@plt>
    21aa:	e8 d1 f0 ff ff       	call   1280 <__stack_chk_fail@plt>

00000000000021af <explode_bomb>:
    21af:	f3 0f 1e fa          	endbr64 
    21b3:	50                   	push   %rax
    21b4:	58                   	pop    %rax
    21b5:	48 83 ec 18          	sub    $0x18,%rsp
    21b9:	64 48 8b 04 25 28 00 	mov    %fs:0x28,%rax
    21c0:	00 00 
    21c2:	48 89 44 24 08       	mov    %rax,0x8(%rsp)
    21c7:	31 c0                	xor    %eax,%eax
    21c9:	48 8d 3d ae 25 00 00 	lea    0x25ae(%rip),%rdi        # 477e <transition_table+0x35e>
    21d0:	e8 8b f0 ff ff       	call   1260 <puts@plt>
    21d5:	48 8d 3d ab 25 00 00 	lea    0x25ab(%rip),%rdi        # 4787 <transition_table+0x367>
    21dc:	e8 7f f0 ff ff       	call   1260 <puts@plt>
    21e1:	c7 44 24 04 00 00 00 	movl   $0x0,0x4(%rsp)
    21e8:	00 
    21e9:	48 8d 74 24 04       	lea    0x4(%rsp),%rsi
    21ee:	bf 00 00 00 00       	mov    $0x0,%edi
    21f3:	e8 4d fe ff ff       	call   2045 <send_msg>
    21f8:	83 7c 24 04 01       	cmpl   $0x1,0x4(%rsp)
    21fd:	74 20                	je     221f <explode_bomb+0x70>
    21ff:	48 8d 35 22 23 00 00 	lea    0x2322(%rip),%rsi        # 4528 <transition_table+0x108>
    2206:	bf 01 00 00 00       	mov    $0x1,%edi
    220b:	b8 00 00 00 00       	mov    $0x0,%eax
    2210:	e8 2b f1 ff ff       	call   1340 <__printf_chk@plt>
    2215:	bf 08 00 00 00       	mov    $0x8,%edi
    221a:	e8 51 f1 ff ff       	call   1370 <exit@plt>
    221f:	48 8d 3d 4a 23 00 00 	lea    0x234a(%rip),%rdi        # 4570 <transition_table+0x150>
    2226:	e8 35 f0 ff ff       	call   1260 <puts@plt>
    222b:	bf 08 00 00 00       	mov    $0x8,%edi
    2230:	e8 3b f1 ff ff       	call   1370 <exit@plt>

0000000000002235 <read_six_numbers>:
    2235:	f3 0f 1e fa          	endbr64 
    2239:	48 83 ec 08          	sub    $0x8,%rsp
    223d:	48 89 f2             	mov    %rsi,%rdx
    2240:	48 8d 4e 04          	lea    0x4(%rsi),%rcx
    2244:	48 8d 46 14          	lea    0x14(%rsi),%rax
    2248:	50                   	push   %rax
    2249:	48 8d 46 10          	lea    0x10(%rsi),%rax
    224d:	50                   	push   %rax
    224e:	4c 8d 4e 0c          	lea    0xc(%rsi),%r9
    2252:	4c 8d 46 08          	lea    0x8(%rsi),%r8
    2256:	48 8d 35 41 25 00 00 	lea    0x2541(%rip),%rsi        # 479e <transition_table+0x37e>
    225d:	b8 00 00 00 00       	mov    $0x0,%eax
    2262:	e8 c9 f0 ff ff       	call   1330 <__isoc99_sscanf@plt>
    2267:	48 83 c4 10          	add    $0x10,%rsp
    226b:	83 f8 05             	cmp    $0x5,%eax
    226e:	7e 05                	jle    2275 <read_six_numbers+0x40>
    2270:	48 83 c4 08          	add    $0x8,%rsp
    2274:	c3                   	ret    
    2275:	e8 35 ff ff ff       	call   21af <explode_bomb>

000000000000227a <read_line>:
    227a:	f3 0f 1e fa          	endbr64 
    227e:	48 83 ec 08          	sub    $0x8,%rsp
    2282:	b8 00 00 00 00       	mov    $0x0,%eax
    2287:	e8 6e fd ff ff       	call   1ffa <skip>
    228c:	48 85 c0             	test   %rax,%rax
    228f:	74 72                	je     2303 <read_line+0x89>
    2291:	8b 15 f5 61 00 00    	mov    0x61f5(%rip),%edx        # 848c <num_input_strings>
    2297:	48 63 ca             	movslq %edx,%rcx
    229a:	48 89 c8             	mov    %rcx,%rax
    229d:	48 c1 e0 04          	shl    $0x4,%rax
    22a1:	48 29 c8             	sub    %rcx,%rax
    22a4:	48 8d 0d f5 61 00 00 	lea    0x61f5(%rip),%rcx        # 84a0 <input_strings>
    22ab:	48 8d 34 c1          	lea    (%rcx,%rax,8),%rsi
    22af:	48 c7 c1 ff ff ff ff 	mov    $0xffffffffffffffff,%rcx
    22b6:	b8 00 00 00 00       	mov    $0x0,%eax
    22bb:	48 89 f7             	mov    %rsi,%rdi
    22be:	f2 ae                	repnz scas %es:(%rdi),%al
    22c0:	48 f7 d1             	not    %rcx
    22c3:	48 83 e9 01          	sub    $0x1,%rcx
    22c7:	83 f9 76             	cmp    $0x76,%ecx
    22ca:	0f 8f ab 00 00 00    	jg     237b <read_line+0x101>
    22d0:	83 e9 01             	sub    $0x1,%ecx
    22d3:	48 63 c9             	movslq %ecx,%rcx
    22d6:	48 63 fa             	movslq %edx,%rdi
    22d9:	48 89 f8             	mov    %rdi,%rax
    22dc:	48 c1 e0 04          	shl    $0x4,%rax
    22e0:	48 29 f8             	sub    %rdi,%rax
    22e3:	48 8d 3d b6 61 00 00 	lea    0x61b6(%rip),%rdi        # 84a0 <input_strings>
    22ea:	48 8d 04 c7          	lea    (%rdi,%rax,8),%rax
    22ee:	c6 04 08 00          	movb   $0x0,(%rax,%rcx,1)
    22f2:	83 c2 01             	add    $0x1,%edx
    22f5:	89 15 91 61 00 00    	mov    %edx,0x6191(%rip)        # 848c <num_input_strings>
    22fb:	48 89 f0             	mov    %rsi,%rax
    22fe:	48 83 c4 08          	add    $0x8,%rsp
    2302:	c3                   	ret    
    2303:	48 8b 05 66 61 00 00 	mov    0x6166(%rip),%rax        # 8470 <stdin@GLIBC_2.2.5>
    230a:	48 39 05 7f 61 00 00 	cmp    %rax,0x617f(%rip)        # 8490 <infile>
    2311:	74 1b                	je     232e <read_line+0xb4>
    2313:	48 8d 3d b4 24 00 00 	lea    0x24b4(%rip),%rdi        # 47ce <transition_table+0x3ae>
    231a:	e8 f1 ee ff ff       	call   1210 <getenv@plt>
    231f:	48 85 c0             	test   %rax,%rax
    2322:	74 20                	je     2344 <read_line+0xca>
    2324:	bf 00 00 00 00       	mov    $0x0,%edi
    2329:	e8 42 f0 ff ff       	call   1370 <exit@plt>
    232e:	48 8d 3d 7b 24 00 00 	lea    0x247b(%rip),%rdi        # 47b0 <transition_table+0x390>
    2335:	e8 26 ef ff ff       	call   1260 <puts@plt>
    233a:	bf 08 00 00 00       	mov    $0x8,%edi
    233f:	e8 2c f0 ff ff       	call   1370 <exit@plt>
    2344:	48 8b 05 25 61 00 00 	mov    0x6125(%rip),%rax        # 8470 <stdin@GLIBC_2.2.5>
    234b:	48 89 05 3e 61 00 00 	mov    %rax,0x613e(%rip)        # 8490 <infile>
    2352:	b8 00 00 00 00       	mov    $0x0,%eax
    2357:	e8 9e fc ff ff       	call   1ffa <skip>
    235c:	48 85 c0             	test   %rax,%rax
    235f:	0f 85 2c ff ff ff    	jne    2291 <read_line+0x17>
    2365:	48 8d 3d 44 24 00 00 	lea    0x2444(%rip),%rdi        # 47b0 <transition_table+0x390>
    236c:	e8 ef ee ff ff       	call   1260 <puts@plt>
    2371:	bf 00 00 00 00       	mov    $0x0,%edi
    2376:	e8 f5 ef ff ff       	call   1370 <exit@plt>
    237b:	48 8d 3d 57 24 00 00 	lea    0x2457(%rip),%rdi        # 47d9 <transition_table+0x3b9>
    2382:	e8 d9 ee ff ff       	call   1260 <puts@plt>
    2387:	8b 05 ff 60 00 00    	mov    0x60ff(%rip),%eax        # 848c <num_input_strings>
    238d:	8d 50 01             	lea    0x1(%rax),%edx
    2390:	89 15 f6 60 00 00    	mov    %edx,0x60f6(%rip)        # 848c <num_input_strings>
    2396:	48 98                	cltq   
    2398:	48 6b c0 78          	imul   $0x78,%rax,%rax
    239c:	48 8d 15 fd 60 00 00 	lea    0x60fd(%rip),%rdx        # 84a0 <input_strings>
    23a3:	48 be 2a 2a 2a 74 72 	movabs $0x636e7572742a2a2a,%rsi
    23aa:	75 6e 63 
    23ad:	48 bf 61 74 65 64 2a 	movabs $0x2a2a2a64657461,%rdi
    23b4:	2a 2a 00 
    23b7:	48 89 34 02          	mov    %rsi,(%rdx,%rax,1)
    23bb:	48 89 7c 02 08       	mov    %rdi,0x8(%rdx,%rax,1)
    23c0:	e8 ea fd ff ff       	call   21af <explode_bomb>

00000000000023c5 <phase_defused>:
    23c5:	f3 0f 1e fa          	endbr64 
    23c9:	53                   	push   %rbx
    23ca:	48 89 fb             	mov    %rdi,%rbx
    23cd:	c7 07 00 00 00 00    	movl   $0x0,(%rdi)
    23d3:	48 89 fe             	mov    %rdi,%rsi
    23d6:	bf 01 00 00 00       	mov    $0x1,%edi
    23db:	e8 65 fc ff ff       	call   2045 <send_msg>
    23e0:	83 3b 01             	cmpl   $0x1,(%rbx)
    23e3:	75 0b                	jne    23f0 <phase_defused+0x2b>
    23e5:	83 3d a0 60 00 00 06 	cmpl   $0x6,0x60a0(%rip)        # 848c <num_input_strings>
    23ec:	74 22                	je     2410 <phase_defused+0x4b>
    23ee:	5b                   	pop    %rbx
    23ef:	c3                   	ret    
    23f0:	48 8d 35 31 21 00 00 	lea    0x2131(%rip),%rsi        # 4528 <transition_table+0x108>
    23f7:	bf 01 00 00 00       	mov    $0x1,%edi
    23fc:	b8 00 00 00 00       	mov    $0x0,%eax
    2401:	e8 3a ef ff ff       	call   1340 <__printf_chk@plt>
    2406:	bf 08 00 00 00       	mov    $0x8,%edi
    240b:	e8 60 ef ff ff       	call   1370 <exit@plt>
    2410:	e8 43 f2 ff ff       	call   1658 <genshin>
    2415:	85 c0                	test   %eax,%eax
    2417:	75 26                	jne    243f <phase_defused+0x7a>
    2419:	48 8d 3d 30 22 00 00 	lea    0x2230(%rip),%rdi        # 4650 <transition_table+0x230>
    2420:	e8 3b ee ff ff       	call   1260 <puts@plt>
    2425:	48 8d 3d 64 22 00 00 	lea    0x2264(%rip),%rdi        # 4690 <transition_table+0x270>
    242c:	e8 2f ee ff ff       	call   1260 <puts@plt>
    2431:	48 8d 3d a0 22 00 00 	lea    0x22a0(%rip),%rdi        # 46d8 <transition_table+0x2b8>
    2438:	e8 23 ee ff ff       	call   1260 <puts@plt>
    243d:	eb af                	jmp    23ee <phase_defused+0x29>
    243f:	e8 c5 f2 ff ff       	call   1709 <qidong>
    2444:	85 c0                	test   %eax,%eax
    2446:	74 24                	je     246c <phase_defused+0xa7>
    2448:	48 8d 3d 49 21 00 00 	lea    0x2149(%rip),%rdi        # 4598 <transition_table+0x178>
    244f:	e8 0c ee ff ff       	call   1260 <puts@plt>
    2454:	48 8d 3d 65 21 00 00 	lea    0x2165(%rip),%rdi        # 45c0 <transition_table+0x1a0>
    245b:	e8 00 ee ff ff       	call   1260 <puts@plt>
    2460:	b8 00 00 00 00       	mov    $0x0,%eax
    2465:	e8 90 f8 ff ff       	call   1cfa <secret_phase>
    246a:	eb ad                	jmp    2419 <phase_defused+0x54>
    246c:	48 8d 3d 8d 21 00 00 	lea    0x218d(%rip),%rdi        # 4600 <transition_table+0x1e0>
    2473:	e8 e8 ed ff ff       	call   1260 <puts@plt>
    2478:	eb 9f                	jmp    2419 <phase_defused+0x54>

000000000000247a <rio_readinitb>:
    247a:	89 37                	mov    %esi,(%rdi)
    247c:	c7 47 04 00 00 00 00 	movl   $0x0,0x4(%rdi)
    2483:	48 8d 47 10          	lea    0x10(%rdi),%rax
    2487:	48 89 47 08          	mov    %rax,0x8(%rdi)
    248b:	c3                   	ret    

000000000000248c <sigalrm_handler>:
    248c:	f3 0f 1e fa          	endbr64 
    2490:	50                   	push   %rax
    2491:	58                   	pop    %rax
    2492:	48 83 ec 08          	sub    $0x8,%rsp
    2496:	b9 00 00 00 00       	mov    $0x0,%ecx
    249b:	48 8d 15 ae 23 00 00 	lea    0x23ae(%rip),%rdx        # 4850 <transition_table+0x430>
    24a2:	be 01 00 00 00       	mov    $0x1,%esi
    24a7:	48 8b 3d d2 5f 00 00 	mov    0x5fd2(%rip),%rdi        # 8480 <stderr@GLIBC_2.2.5>
    24ae:	b8 00 00 00 00       	mov    $0x0,%eax
    24b3:	e8 d8 ee ff ff       	call   1390 <__fprintf_chk@plt>
    24b8:	bf 01 00 00 00       	mov    $0x1,%edi
    24bd:	e8 ae ee ff ff       	call   1370 <exit@plt>

00000000000024c2 <rio_writen>:
    24c2:	41 55                	push   %r13
    24c4:	41 54                	push   %r12
    24c6:	55                   	push   %rbp
    24c7:	53                   	push   %rbx
    24c8:	48 83 ec 08          	sub    $0x8,%rsp
    24cc:	41 89 fc             	mov    %edi,%r12d
    24cf:	48 89 f5             	mov    %rsi,%rbp
    24d2:	49 89 d5             	mov    %rdx,%r13
    24d5:	48 89 d3             	mov    %rdx,%rbx
    24d8:	eb 06                	jmp    24e0 <rio_writen+0x1e>
    24da:	48 29 c3             	sub    %rax,%rbx
    24dd:	48 01 c5             	add    %rax,%rbp
    24e0:	48 85 db             	test   %rbx,%rbx
    24e3:	74 24                	je     2509 <rio_writen+0x47>
    24e5:	48 89 da             	mov    %rbx,%rdx
    24e8:	48 89 ee             	mov    %rbp,%rsi
    24eb:	44 89 e7             	mov    %r12d,%edi
    24ee:	e8 7d ed ff ff       	call   1270 <write@plt>
    24f3:	48 85 c0             	test   %rax,%rax
    24f6:	7f e2                	jg     24da <rio_writen+0x18>
    24f8:	e8 43 ed ff ff       	call   1240 <__errno_location@plt>
    24fd:	83 38 04             	cmpl   $0x4,(%rax)
    2500:	75 15                	jne    2517 <rio_writen+0x55>
    2502:	b8 00 00 00 00       	mov    $0x0,%eax
    2507:	eb d1                	jmp    24da <rio_writen+0x18>
    2509:	4c 89 e8             	mov    %r13,%rax
    250c:	48 83 c4 08          	add    $0x8,%rsp
    2510:	5b                   	pop    %rbx
    2511:	5d                   	pop    %rbp
    2512:	41 5c                	pop    %r12
    2514:	41 5d                	pop    %r13
    2516:	c3                   	ret    
    2517:	48 c7 c0 ff ff ff ff 	mov    $0xffffffffffffffff,%rax
    251e:	eb ec                	jmp    250c <rio_writen+0x4a>

0000000000002520 <rio_read>:
    2520:	41 55                	push   %r13
    2522:	41 54                	push   %r12
    2524:	55                   	push   %rbp
    2525:	53                   	push   %rbx
    2526:	48 83 ec 08          	sub    $0x8,%rsp
    252a:	48 89 fb             	mov    %rdi,%rbx
    252d:	49 89 f5             	mov    %rsi,%r13
    2530:	49 89 d4             	mov    %rdx,%r12
    2533:	eb 17                	jmp    254c <rio_read+0x2c>
    2535:	e8 06 ed ff ff       	call   1240 <__errno_location@plt>
    253a:	83 38 04             	cmpl   $0x4,(%rax)
    253d:	74 0d                	je     254c <rio_read+0x2c>
    253f:	48 c7 c0 ff ff ff ff 	mov    $0xffffffffffffffff,%rax
    2546:	eb 54                	jmp    259c <rio_read+0x7c>
    2548:	48 89 6b 08          	mov    %rbp,0x8(%rbx)
    254c:	8b 6b 04             	mov    0x4(%rbx),%ebp
    254f:	85 ed                	test   %ebp,%ebp
    2551:	7f 23                	jg     2576 <rio_read+0x56>
    2553:	48 8d 6b 10          	lea    0x10(%rbx),%rbp
    2557:	8b 3b                	mov    (%rbx),%edi
    2559:	ba 00 20 00 00       	mov    $0x2000,%edx
    255e:	48 89 ee             	mov    %rbp,%rsi
    2561:	e8 4a ed ff ff       	call   12b0 <read@plt>
    2566:	89 43 04             	mov    %eax,0x4(%rbx)
    2569:	85 c0                	test   %eax,%eax
    256b:	78 c8                	js     2535 <rio_read+0x15>
    256d:	75 d9                	jne    2548 <rio_read+0x28>
    256f:	b8 00 00 00 00       	mov    $0x0,%eax
    2574:	eb 26                	jmp    259c <rio_read+0x7c>
    2576:	89 e8                	mov    %ebp,%eax
    2578:	4c 39 e0             	cmp    %r12,%rax
    257b:	72 03                	jb     2580 <rio_read+0x60>
    257d:	44 89 e5             	mov    %r12d,%ebp
    2580:	4c 63 e5             	movslq %ebp,%r12
    2583:	48 8b 73 08          	mov    0x8(%rbx),%rsi
    2587:	4c 89 e2             	mov    %r12,%rdx
    258a:	4c 89 ef             	mov    %r13,%rdi
    258d:	e8 6e ed ff ff       	call   1300 <memcpy@plt>
    2592:	4c 01 63 08          	add    %r12,0x8(%rbx)
    2596:	29 6b 04             	sub    %ebp,0x4(%rbx)
    2599:	4c 89 e0             	mov    %r12,%rax
    259c:	48 83 c4 08          	add    $0x8,%rsp
    25a0:	5b                   	pop    %rbx
    25a1:	5d                   	pop    %rbp
    25a2:	41 5c                	pop    %r12
    25a4:	41 5d                	pop    %r13
    25a6:	c3                   	ret    

00000000000025a7 <rio_readlineb>:
    25a7:	41 55                	push   %r13
    25a9:	41 54                	push   %r12
    25ab:	55                   	push   %rbp
    25ac:	53                   	push   %rbx
    25ad:	48 83 ec 18          	sub    $0x18,%rsp
    25b1:	49 89 fd             	mov    %rdi,%r13
    25b4:	48 89 f5             	mov    %rsi,%rbp
    25b7:	49 89 d4             	mov    %rdx,%r12
    25ba:	64 48 8b 04 25 28 00 	mov    %fs:0x28,%rax
    25c1:	00 00 
    25c3:	48 89 44 24 08       	mov    %rax,0x8(%rsp)
    25c8:	31 c0                	xor    %eax,%eax
    25ca:	bb 01 00 00 00       	mov    $0x1,%ebx
    25cf:	eb 18                	jmp    25e9 <rio_readlineb+0x42>
    25d1:	85 c0                	test   %eax,%eax
    25d3:	75 65                	jne    263a <rio_readlineb+0x93>
    25d5:	48 83 fb 01          	cmp    $0x1,%rbx
    25d9:	75 3d                	jne    2618 <rio_readlineb+0x71>
    25db:	b8 00 00 00 00       	mov    $0x0,%eax
    25e0:	eb 3d                	jmp    261f <rio_readlineb+0x78>
    25e2:	48 83 c3 01          	add    $0x1,%rbx
    25e6:	48 89 d5             	mov    %rdx,%rbp
    25e9:	4c 39 e3             	cmp    %r12,%rbx
    25ec:	73 2a                	jae    2618 <rio_readlineb+0x71>
    25ee:	48 8d 74 24 07       	lea    0x7(%rsp),%rsi
    25f3:	ba 01 00 00 00       	mov    $0x1,%edx
    25f8:	4c 89 ef             	mov    %r13,%rdi
    25fb:	e8 20 ff ff ff       	call   2520 <rio_read>
    2600:	83 f8 01             	cmp    $0x1,%eax
    2603:	75 cc                	jne    25d1 <rio_readlineb+0x2a>
    2605:	48 8d 55 01          	lea    0x1(%rbp),%rdx
    2609:	0f b6 44 24 07       	movzbl 0x7(%rsp),%eax
    260e:	88 45 00             	mov    %al,0x0(%rbp)
    2611:	3c 0a                	cmp    $0xa,%al
    2613:	75 cd                	jne    25e2 <rio_readlineb+0x3b>
    2615:	48 89 d5             	mov    %rdx,%rbp
    2618:	c6 45 00 00          	movb   $0x0,0x0(%rbp)
    261c:	48 89 d8             	mov    %rbx,%rax
    261f:	48 8b 4c 24 08       	mov    0x8(%rsp),%rcx
    2624:	64 48 33 0c 25 28 00 	xor    %fs:0x28,%rcx
    262b:	00 00 
    262d:	75 14                	jne    2643 <rio_readlineb+0x9c>
    262f:	48 83 c4 18          	add    $0x18,%rsp
    2633:	5b                   	pop    %rbx
    2634:	5d                   	pop    %rbp
    2635:	41 5c                	pop    %r12
    2637:	41 5d                	pop    %r13
    2639:	c3                   	ret    
    263a:	48 c7 c0 ff ff ff ff 	mov    $0xffffffffffffffff,%rax
    2641:	eb dc                	jmp    261f <rio_readlineb+0x78>
    2643:	e8 38 ec ff ff       	call   1280 <__stack_chk_fail@plt>

0000000000002648 <urlencode>:
    2648:	41 54                	push   %r12
    264a:	55                   	push   %rbp
    264b:	53                   	push   %rbx
    264c:	48 83 ec 10          	sub    $0x10,%rsp
    2650:	48 89 fb             	mov    %rdi,%rbx
    2653:	48 89 f5             	mov    %rsi,%rbp
    2656:	64 48 8b 04 25 28 00 	mov    %fs:0x28,%rax
    265d:	00 00 
    265f:	48 89 44 24 08       	mov    %rax,0x8(%rsp)
    2664:	31 c0                	xor    %eax,%eax
    2666:	48 c7 c1 ff ff ff ff 	mov    $0xffffffffffffffff,%rcx
    266d:	f2 ae                	repnz scas %es:(%rdi),%al
    266f:	48 f7 d1             	not    %rcx
    2672:	8d 41 ff             	lea    -0x1(%rcx),%eax
    2675:	eb 0f                	jmp    2686 <urlencode+0x3e>
    2677:	44 88 45 00          	mov    %r8b,0x0(%rbp)
    267b:	48 8d 6d 01          	lea    0x1(%rbp),%rbp
    267f:	48 83 c3 01          	add    $0x1,%rbx
    2683:	44 89 e0             	mov    %r12d,%eax
    2686:	44 8d 60 ff          	lea    -0x1(%rax),%r12d
    268a:	85 c0                	test   %eax,%eax
    268c:	0f 84 a8 00 00 00    	je     273a <urlencode+0xf2>
    2692:	44 0f b6 03          	movzbl (%rbx),%r8d
    2696:	41 80 f8 2a          	cmp    $0x2a,%r8b
    269a:	0f 94 c2             	sete   %dl
    269d:	41 80 f8 2d          	cmp    $0x2d,%r8b
    26a1:	0f 94 c0             	sete   %al
    26a4:	08 c2                	or     %al,%dl
    26a6:	75 cf                	jne    2677 <urlencode+0x2f>
    26a8:	41 80 f8 2e          	cmp    $0x2e,%r8b
    26ac:	74 c9                	je     2677 <urlencode+0x2f>
    26ae:	41 80 f8 5f          	cmp    $0x5f,%r8b
    26b2:	74 c3                	je     2677 <urlencode+0x2f>
    26b4:	41 8d 40 d0          	lea    -0x30(%r8),%eax
    26b8:	3c 09                	cmp    $0x9,%al
    26ba:	76 bb                	jbe    2677 <urlencode+0x2f>
    26bc:	41 8d 40 bf          	lea    -0x41(%r8),%eax
    26c0:	3c 19                	cmp    $0x19,%al
    26c2:	76 b3                	jbe    2677 <urlencode+0x2f>
    26c4:	41 8d 40 9f          	lea    -0x61(%r8),%eax
    26c8:	3c 19                	cmp    $0x19,%al
    26ca:	76 ab                	jbe    2677 <urlencode+0x2f>
    26cc:	41 80 f8 20          	cmp    $0x20,%r8b
    26d0:	74 56                	je     2728 <urlencode+0xe0>
    26d2:	41 8d 40 e0          	lea    -0x20(%r8),%eax
    26d6:	3c 5f                	cmp    $0x5f,%al
    26d8:	0f 96 c2             	setbe  %dl
    26db:	41 80 f8 09          	cmp    $0x9,%r8b
    26df:	0f 94 c0             	sete   %al
    26e2:	08 c2                	or     %al,%dl
    26e4:	74 4f                	je     2735 <urlencode+0xed>
    26e6:	48 89 e7             	mov    %rsp,%rdi
    26e9:	45 0f b6 c0          	movzbl %r8b,%r8d
    26ed:	48 8d 0d 11 22 00 00 	lea    0x2211(%rip),%rcx        # 4905 <transition_table+0x4e5>
    26f4:	ba 08 00 00 00       	mov    $0x8,%edx
    26f9:	be 01 00 00 00       	mov    $0x1,%esi
    26fe:	b8 00 00 00 00       	mov    $0x0,%eax
    2703:	e8 b8 ec ff ff       	call   13c0 <__sprintf_chk@plt>
    2708:	0f b6 04 24          	movzbl (%rsp),%eax
    270c:	88 45 00             	mov    %al,0x0(%rbp)
    270f:	0f b6 44 24 01       	movzbl 0x1(%rsp),%eax
    2714:	88 45 01             	mov    %al,0x1(%rbp)
    2717:	0f b6 44 24 02       	movzbl 0x2(%rsp),%eax
    271c:	88 45 02             	mov    %al,0x2(%rbp)
    271f:	48 8d 6d 03          	lea    0x3(%rbp),%rbp
    2723:	e9 57 ff ff ff       	jmp    267f <urlencode+0x37>
    2728:	c6 45 00 2b          	movb   $0x2b,0x0(%rbp)
    272c:	48 8d 6d 01          	lea    0x1(%rbp),%rbp
    2730:	e9 4a ff ff ff       	jmp    267f <urlencode+0x37>
    2735:	b8 ff ff ff ff       	mov    $0xffffffff,%eax
    273a:	48 8b 74 24 08       	mov    0x8(%rsp),%rsi
    273f:	64 48 33 34 25 28 00 	xor    %fs:0x28,%rsi
    2746:	00 00 
    2748:	75 09                	jne    2753 <urlencode+0x10b>
    274a:	48 83 c4 10          	add    $0x10,%rsp
    274e:	5b                   	pop    %rbx
    274f:	5d                   	pop    %rbp
    2750:	41 5c                	pop    %r12
    2752:	c3                   	ret    
    2753:	e8 28 eb ff ff       	call   1280 <__stack_chk_fail@plt>

0000000000002758 <submitr>:
    2758:	f3 0f 1e fa          	endbr64 
    275c:	41 57                	push   %r15
    275e:	41 56                	push   %r14
    2760:	41 55                	push   %r13
    2762:	41 54                	push   %r12
    2764:	55                   	push   %rbp
    2765:	53                   	push   %rbx
    2766:	4c 8d 9c 24 00 60 ff 	lea    -0xa000(%rsp),%r11
    276d:	ff 
    276e:	48 81 ec 00 10 00 00 	sub    $0x1000,%rsp
    2775:	48 83 0c 24 00       	orq    $0x0,(%rsp)
    277a:	4c 39 dc             	cmp    %r11,%rsp
    277d:	75 ef                	jne    276e <submitr+0x16>
    277f:	48 83 ec 68          	sub    $0x68,%rsp
    2783:	49 89 fc             	mov    %rdi,%r12
    2786:	89 74 24 1c          	mov    %esi,0x1c(%rsp)
    278a:	48 89 54 24 08       	mov    %rdx,0x8(%rsp)
    278f:	49 89 cd             	mov    %rcx,%r13
    2792:	4c 89 44 24 10       	mov    %r8,0x10(%rsp)
    2797:	4d 89 ce             	mov    %r9,%r14
    279a:	48 8b ac 24 a0 a0 00 	mov    0xa0a0(%rsp),%rbp
    27a1:	00 
    27a2:	64 48 8b 04 25 28 00 	mov    %fs:0x28,%rax
    27a9:	00 00 
    27ab:	48 89 84 24 58 a0 00 	mov    %rax,0xa058(%rsp)
    27b2:	00 
    27b3:	31 c0                	xor    %eax,%eax
    27b5:	c7 44 24 2c 00 00 00 	movl   $0x0,0x2c(%rsp)
    27bc:	00 
    27bd:	ba 00 00 00 00       	mov    $0x0,%edx
    27c2:	be 01 00 00 00       	mov    $0x1,%esi
    27c7:	bf 02 00 00 00       	mov    $0x2,%edi
    27cc:	e8 ff eb ff ff       	call   13d0 <socket@plt>
    27d1:	85 c0                	test   %eax,%eax
    27d3:	0f 88 a5 02 00 00    	js     2a7e <submitr+0x326>
    27d9:	89 c3                	mov    %eax,%ebx
    27db:	4c 89 e7             	mov    %r12,%rdi
    27de:	e8 fd ea ff ff       	call   12e0 <gethostbyname@plt>
    27e3:	48 85 c0             	test   %rax,%rax
    27e6:	0f 84 de 02 00 00    	je     2aca <submitr+0x372>
    27ec:	4c 8d 7c 24 30       	lea    0x30(%rsp),%r15
    27f1:	48 c7 44 24 30 00 00 	movq   $0x0,0x30(%rsp)
    27f8:	00 00 
    27fa:	48 c7 44 24 38 00 00 	movq   $0x0,0x38(%rsp)
    2801:	00 00 
    2803:	66 c7 44 24 30 02 00 	movw   $0x2,0x30(%rsp)
    280a:	48 63 50 14          	movslq 0x14(%rax),%rdx
    280e:	48 8b 40 18          	mov    0x18(%rax),%rax
    2812:	48 8b 30             	mov    (%rax),%rsi
    2815:	48 8d 7c 24 34       	lea    0x34(%rsp),%rdi
    281a:	b9 0c 00 00 00       	mov    $0xc,%ecx
    281f:	e8 cc ea ff ff       	call   12f0 <__memmove_chk@plt>
    2824:	0f b7 74 24 1c       	movzwl 0x1c(%rsp),%esi
    2829:	66 c1 c6 08          	rol    $0x8,%si
    282d:	66 89 74 24 32       	mov    %si,0x32(%rsp)
    2832:	ba 10 00 00 00       	mov    $0x10,%edx
    2837:	4c 89 fe             	mov    %r15,%rsi
    283a:	89 df                	mov    %ebx,%edi
    283c:	e8 3f eb ff ff       	call   1380 <connect@plt>
    2841:	85 c0                	test   %eax,%eax
    2843:	0f 88 f7 02 00 00    	js     2b40 <submitr+0x3e8>
    2849:	48 c7 c6 ff ff ff ff 	mov    $0xffffffffffffffff,%rsi
    2850:	b8 00 00 00 00       	mov    $0x0,%eax
    2855:	48 89 f1             	mov    %rsi,%rcx
    2858:	4c 89 f7             	mov    %r14,%rdi
    285b:	f2 ae                	repnz scas %es:(%rdi),%al
    285d:	48 89 ca             	mov    %rcx,%rdx
    2860:	48 f7 d2             	not    %rdx
    2863:	48 89 f1             	mov    %rsi,%rcx
    2866:	48 8b 7c 24 08       	mov    0x8(%rsp),%rdi
    286b:	f2 ae                	repnz scas %es:(%rdi),%al
    286d:	48 f7 d1             	not    %rcx
    2870:	49 89 c8             	mov    %rcx,%r8
    2873:	48 89 f1             	mov    %rsi,%rcx
    2876:	4c 89 ef             	mov    %r13,%rdi
    2879:	f2 ae                	repnz scas %es:(%rdi),%al
    287b:	48 f7 d1             	not    %rcx
    287e:	4d 8d 44 08 fe       	lea    -0x2(%r8,%rcx,1),%r8
    2883:	48 89 f1             	mov    %rsi,%rcx
    2886:	48 8b 7c 24 10       	mov    0x10(%rsp),%rdi
    288b:	f2 ae                	repnz scas %es:(%rdi),%al
    288d:	48 89 c8             	mov    %rcx,%rax
    2890:	48 f7 d0             	not    %rax
    2893:	49 8d 4c 00 ff       	lea    -0x1(%r8,%rax,1),%rcx
    2898:	48 8d 44 52 fd       	lea    -0x3(%rdx,%rdx,2),%rax
    289d:	48 8d 84 01 80 00 00 	lea    0x80(%rcx,%rax,1),%rax
    28a4:	00 
    28a5:	48 3d 00 20 00 00    	cmp    $0x2000,%rax
    28ab:	0f 87 f7 02 00 00    	ja     2ba8 <submitr+0x450>
    28b1:	48 8d b4 24 50 40 00 	lea    0x4050(%rsp),%rsi
    28b8:	00 
    28b9:	b9 00 04 00 00       	mov    $0x400,%ecx
    28be:	b8 00 00 00 00       	mov    $0x0,%eax
    28c3:	48 89 f7             	mov    %rsi,%rdi
    28c6:	f3 48 ab             	rep stos %rax,%es:(%rdi)
    28c9:	4c 89 f7             	mov    %r14,%rdi
    28cc:	e8 77 fd ff ff       	call   2648 <urlencode>
    28d1:	85 c0                	test   %eax,%eax
    28d3:	0f 88 42 03 00 00    	js     2c1b <submitr+0x4c3>
    28d9:	4c 8d bc 24 50 20 00 	lea    0x2050(%rsp),%r15
    28e0:	00 
    28e1:	48 83 ec 08          	sub    $0x8,%rsp
    28e5:	41 54                	push   %r12
    28e7:	48 8d 84 24 60 40 00 	lea    0x4060(%rsp),%rax
    28ee:	00 
    28ef:	50                   	push   %rax
    28f0:	41 55                	push   %r13
    28f2:	4c 8b 4c 24 30       	mov    0x30(%rsp),%r9
    28f7:	4c 8b 44 24 28       	mov    0x28(%rsp),%r8
    28fc:	48 8d 0d 75 1f 00 00 	lea    0x1f75(%rip),%rcx        # 4878 <transition_table+0x458>
    2903:	ba 00 20 00 00       	mov    $0x2000,%edx
    2908:	be 01 00 00 00       	mov    $0x1,%esi
    290d:	4c 89 ff             	mov    %r15,%rdi
    2910:	b8 00 00 00 00       	mov    $0x0,%eax
    2915:	e8 a6 ea ff ff       	call   13c0 <__sprintf_chk@plt>
    291a:	48 c7 c1 ff ff ff ff 	mov    $0xffffffffffffffff,%rcx
    2921:	b8 00 00 00 00       	mov    $0x0,%eax
    2926:	4c 89 ff             	mov    %r15,%rdi
    2929:	f2 ae                	repnz scas %es:(%rdi),%al
    292b:	48 f7 d1             	not    %rcx
    292e:	48 8d 51 ff          	lea    -0x1(%rcx),%rdx
    2932:	48 83 c4 20          	add    $0x20,%rsp
    2936:	4c 89 fe             	mov    %r15,%rsi
    2939:	89 df                	mov    %ebx,%edi
    293b:	e8 82 fb ff ff       	call   24c2 <rio_writen>
    2940:	48 85 c0             	test   %rax,%rax
    2943:	0f 88 5d 03 00 00    	js     2ca6 <submitr+0x54e>
    2949:	4c 8d 64 24 40       	lea    0x40(%rsp),%r12
    294e:	89 de                	mov    %ebx,%esi
    2950:	4c 89 e7             	mov    %r12,%rdi
    2953:	e8 22 fb ff ff       	call   247a <rio_readinitb>
    2958:	48 8d b4 24 50 20 00 	lea    0x2050(%rsp),%rsi
    295f:	00 
    2960:	ba 00 20 00 00       	mov    $0x2000,%edx
    2965:	4c 89 e7             	mov    %r12,%rdi
    2968:	e8 3a fc ff ff       	call   25a7 <rio_readlineb>
    296d:	48 85 c0             	test   %rax,%rax
    2970:	0f 8e 9c 03 00 00    	jle    2d12 <submitr+0x5ba>
    2976:	48 8d 4c 24 2c       	lea    0x2c(%rsp),%rcx
    297b:	48 8d 94 24 50 60 00 	lea    0x6050(%rsp),%rdx
    2982:	00 
    2983:	48 8d bc 24 50 20 00 	lea    0x2050(%rsp),%rdi
    298a:	00 
    298b:	4c 8d 84 24 50 80 00 	lea    0x8050(%rsp),%r8
    2992:	00 
    2993:	48 8d 35 72 1f 00 00 	lea    0x1f72(%rip),%rsi        # 490c <transition_table+0x4ec>
    299a:	b8 00 00 00 00       	mov    $0x0,%eax
    299f:	e8 8c e9 ff ff       	call   1330 <__isoc99_sscanf@plt>
    29a4:	48 8d b4 24 50 20 00 	lea    0x2050(%rsp),%rsi
    29ab:	00 
    29ac:	b9 03 00 00 00       	mov    $0x3,%ecx
    29b1:	48 8d 3d 6b 1f 00 00 	lea    0x1f6b(%rip),%rdi        # 4923 <transition_table+0x503>
    29b8:	f3 a6                	repz cmpsb %es:(%rdi),%ds:(%rsi)
    29ba:	0f 97 c0             	seta   %al
    29bd:	1c 00                	sbb    $0x0,%al
    29bf:	84 c0                	test   %al,%al
    29c1:	0f 84 cb 03 00 00    	je     2d92 <submitr+0x63a>
    29c7:	48 8d b4 24 50 20 00 	lea    0x2050(%rsp),%rsi
    29ce:	00 
    29cf:	48 8d 7c 24 40       	lea    0x40(%rsp),%rdi
    29d4:	ba 00 20 00 00       	mov    $0x2000,%edx
    29d9:	e8 c9 fb ff ff       	call   25a7 <rio_readlineb>
    29de:	48 85 c0             	test   %rax,%rax
    29e1:	7f c1                	jg     29a4 <submitr+0x24c>
    29e3:	48 b8 45 72 72 6f 72 	movabs $0x43203a726f727245,%rax
    29ea:	3a 20 43 
    29ed:	48 ba 6c 69 65 6e 74 	movabs $0x6e7520746e65696c,%rdx
    29f4:	20 75 6e 
    29f7:	48 89 45 00          	mov    %rax,0x0(%rbp)
    29fb:	48 89 55 08          	mov    %rdx,0x8(%rbp)
    29ff:	48 b8 61 62 6c 65 20 	movabs $0x206f7420656c6261,%rax
    2a06:	74 6f 20 
    2a09:	48 ba 72 65 61 64 20 	movabs $0x6165682064616572,%rdx
    2a10:	68 65 61 
    2a13:	48 89 45 10          	mov    %rax,0x10(%rbp)
    2a17:	48 89 55 18          	mov    %rdx,0x18(%rbp)
    2a1b:	48 b8 64 65 72 73 20 	movabs $0x6f72662073726564,%rax
    2a22:	66 72 6f 
    2a25:	48 ba 6d 20 41 75 74 	movabs $0x616c6f747541206d,%rdx
    2a2c:	6f 6c 61 
    2a2f:	48 89 45 20          	mov    %rax,0x20(%rbp)
    2a33:	48 89 55 28          	mov    %rdx,0x28(%rbp)
    2a37:	48 b8 62 20 73 65 72 	movabs $0x7265767265732062,%rax
    2a3e:	76 65 72 
    2a41:	48 89 45 30          	mov    %rax,0x30(%rbp)
    2a45:	c6 45 38 00          	movb   $0x0,0x38(%rbp)
    2a49:	89 df                	mov    %ebx,%edi
    2a4b:	e8 50 e8 ff ff       	call   12a0 <close@plt>
    2a50:	b8 ff ff ff ff       	mov    $0xffffffff,%eax
    2a55:	48 8b 9c 24 58 a0 00 	mov    0xa058(%rsp),%rbx
    2a5c:	00 
    2a5d:	64 48 33 1c 25 28 00 	xor    %fs:0x28,%rbx
    2a64:	00 00 
    2a66:	0f 85 96 04 00 00    	jne    2f02 <submitr+0x7aa>
    2a6c:	48 81 c4 68 a0 00 00 	add    $0xa068,%rsp
    2a73:	5b                   	pop    %rbx
    2a74:	5d                   	pop    %rbp
    2a75:	41 5c                	pop    %r12
    2a77:	41 5d                	pop    %r13
    2a79:	41 5e                	pop    %r14
    2a7b:	41 5f                	pop    %r15
    2a7d:	c3                   	ret    
    2a7e:	48 b8 45 72 72 6f 72 	movabs $0x43203a726f727245,%rax
    2a85:	3a 20 43 
    2a88:	48 ba 6c 69 65 6e 74 	movabs $0x6e7520746e65696c,%rdx
    2a8f:	20 75 6e 
    2a92:	48 89 45 00          	mov    %rax,0x0(%rbp)
    2a96:	48 89 55 08          	mov    %rdx,0x8(%rbp)
    2a9a:	48 b8 61 62 6c 65 20 	movabs $0x206f7420656c6261,%rax
    2aa1:	74 6f 20 
    2aa4:	48 ba 63 72 65 61 74 	movabs $0x7320657461657263,%rdx
    2aab:	65 20 73 
    2aae:	48 89 45 10          	mov    %rax,0x10(%rbp)
    2ab2:	48 89 55 18          	mov    %rdx,0x18(%rbp)
    2ab6:	c7 45 20 6f 63 6b 65 	movl   $0x656b636f,0x20(%rbp)
    2abd:	66 c7 45 24 74 00    	movw   $0x74,0x24(%rbp)
    2ac3:	b8 ff ff ff ff       	mov    $0xffffffff,%eax
    2ac8:	eb 8b                	jmp    2a55 <submitr+0x2fd>
    2aca:	48 b8 45 72 72 6f 72 	movabs $0x44203a726f727245,%rax
    2ad1:	3a 20 44 
    2ad4:	48 ba 4e 53 20 69 73 	movabs $0x6e7520736920534e,%rdx
    2adb:	20 75 6e 
    2ade:	48 89 45 00          	mov    %rax,0x0(%rbp)
    2ae2:	48 89 55 08          	mov    %rdx,0x8(%rbp)
    2ae6:	48 b8 61 62 6c 65 20 	movabs $0x206f7420656c6261,%rax
    2aed:	74 6f 20 
    2af0:	48 ba 72 65 73 6f 6c 	movabs $0x2065766c6f736572,%rdx
    2af7:	76 65 20 
    2afa:	48 89 45 10          	mov    %rax,0x10(%rbp)
    2afe:	48 89 55 18          	mov    %rdx,0x18(%rbp)
    2b02:	48 b8 41 75 74 6f 6c 	movabs $0x2062616c6f747541,%rax
    2b09:	61 62 20 
    2b0c:	48 ba 73 65 72 76 65 	movabs $0x6120726576726573,%rdx
    2b13:	72 20 61 
    2b16:	48 89 45 20          	mov    %rax,0x20(%rbp)
    2b1a:	48 89 55 28          	mov    %rdx,0x28(%rbp)
    2b1e:	c7 45 30 64 64 72 65 	movl   $0x65726464,0x30(%rbp)
    2b25:	66 c7 45 34 73 73    	movw   $0x7373,0x34(%rbp)
    2b2b:	c6 45 36 00          	movb   $0x0,0x36(%rbp)
    2b2f:	89 df                	mov    %ebx,%edi
    2b31:	e8 6a e7 ff ff       	call   12a0 <close@plt>
    2b36:	b8 ff ff ff ff       	mov    $0xffffffff,%eax
    2b3b:	e9 15 ff ff ff       	jmp    2a55 <submitr+0x2fd>
    2b40:	48 b8 45 72 72 6f 72 	movabs $0x55203a726f727245,%rax
    2b47:	3a 20 55 
    2b4a:	48 ba 6e 61 62 6c 65 	movabs $0x6f7420656c62616e,%rdx
    2b51:	20 74 6f 
    2b54:	48 89 45 00          	mov    %rax,0x0(%rbp)
    2b58:	48 89 55 08          	mov    %rdx,0x8(%rbp)
    2b5c:	48 b8 20 63 6f 6e 6e 	movabs $0x7463656e6e6f6320,%rax
    2b63:	65 63 74 
    2b66:	48 ba 20 74 6f 20 74 	movabs $0x20656874206f7420,%rdx
    2b6d:	68 65 20 
    2b70:	48 89 45 10          	mov    %rax,0x10(%rbp)
    2b74:	48 89 55 18          	mov    %rdx,0x18(%rbp)
    2b78:	48 b8 41 75 74 6f 6c 	movabs $0x2062616c6f747541,%rax
    2b7f:	61 62 20 
    2b82:	48 89 45 20          	mov    %rax,0x20(%rbp)
    2b86:	c7 45 28 73 65 72 76 	movl   $0x76726573,0x28(%rbp)
    2b8d:	66 c7 45 2c 65 72    	movw   $0x7265,0x2c(%rbp)
    2b93:	c6 45 2e 00          	movb   $0x0,0x2e(%rbp)
    2b97:	89 df                	mov    %ebx,%edi
    2b99:	e8 02 e7 ff ff       	call   12a0 <close@plt>
    2b9e:	b8 ff ff ff ff       	mov    $0xffffffff,%eax
    2ba3:	e9 ad fe ff ff       	jmp    2a55 <submitr+0x2fd>
    2ba8:	48 b8 45 72 72 6f 72 	movabs $0x52203a726f727245,%rax
    2baf:	3a 20 52 
    2bb2:	48 ba 65 73 75 6c 74 	movabs $0x747320746c757365,%rdx
    2bb9:	20 73 74 
    2bbc:	48 89 45 00          	mov    %rax,0x0(%rbp)
    2bc0:	48 89 55 08          	mov    %rdx,0x8(%rbp)
    2bc4:	48 b8 72 69 6e 67 20 	movabs $0x6f6f7420676e6972,%rax
    2bcb:	74 6f 6f 
    2bce:	48 ba 20 6c 61 72 67 	movabs $0x202e656772616c20,%rdx
    2bd5:	65 2e 20 
    2bd8:	48 89 45 10          	mov    %rax,0x10(%rbp)
    2bdc:	48 89 55 18          	mov    %rdx,0x18(%rbp)
    2be0:	48 b8 49 6e 63 72 65 	movabs $0x6573616572636e49,%rax
    2be7:	61 73 65 
    2bea:	48 ba 20 53 55 42 4d 	movabs $0x5254494d42555320,%rdx
    2bf1:	49 54 52 
    2bf4:	48 89 45 20          	mov    %rax,0x20(%rbp)
    2bf8:	48 89 55 28          	mov    %rdx,0x28(%rbp)
    2bfc:	48 b8 5f 4d 41 58 42 	movabs $0x46554258414d5f,%rax
    2c03:	55 46 00 
    2c06:	48 89 45 30          	mov    %rax,0x30(%rbp)
    2c0a:	89 df                	mov    %ebx,%edi
    2c0c:	e8 8f e6 ff ff       	call   12a0 <close@plt>
    2c11:	b8 ff ff ff ff       	mov    $0xffffffff,%eax
    2c16:	e9 3a fe ff ff       	jmp    2a55 <submitr+0x2fd>
    2c1b:	48 b8 45 72 72 6f 72 	movabs $0x52203a726f727245,%rax
    2c22:	3a 20 52 
    2c25:	48 ba 65 73 75 6c 74 	movabs $0x747320746c757365,%rdx
    2c2c:	20 73 74 
    2c2f:	48 89 45 00          	mov    %rax,0x0(%rbp)
    2c33:	48 89 55 08          	mov    %rdx,0x8(%rbp)
    2c37:	48 b8 72 69 6e 67 20 	movabs $0x6e6f6320676e6972,%rax
    2c3e:	63 6f 6e 
    2c41:	48 ba 74 61 69 6e 73 	movabs $0x6e6120736e696174,%rdx
    2c48:	20 61 6e 
    2c4b:	48 89 45 10          	mov    %rax,0x10(%rbp)
    2c4f:	48 89 55 18          	mov    %rdx,0x18(%rbp)
    2c53:	48 b8 20 69 6c 6c 65 	movabs $0x6c6167656c6c6920,%rax
    2c5a:	67 61 6c 
    2c5d:	48 ba 20 6f 72 20 75 	movabs $0x72706e7520726f20,%rdx
    2c64:	6e 70 72 
    2c67:	48 89 45 20          	mov    %rax,0x20(%rbp)
    2c6b:	48 89 55 28          	mov    %rdx,0x28(%rbp)
    2c6f:	48 b8 69 6e 74 61 62 	movabs $0x20656c6261746e69,%rax
    2c76:	6c 65 20 
    2c79:	48 ba 63 68 61 72 61 	movabs $0x6574636172616863,%rdx
    2c80:	63 74 65 
    2c83:	48 89 45 30          	mov    %rax,0x30(%rbp)
    2c87:	48 89 55 38          	mov    %rdx,0x38(%rbp)
    2c8b:	66 c7 45 40 72 2e    	movw   $0x2e72,0x40(%rbp)
    2c91:	c6 45 42 00          	movb   $0x0,0x42(%rbp)
    2c95:	89 df                	mov    %ebx,%edi
    2c97:	e8 04 e6 ff ff       	call   12a0 <close@plt>
    2c9c:	b8 ff ff ff ff       	mov    $0xffffffff,%eax
    2ca1:	e9 af fd ff ff       	jmp    2a55 <submitr+0x2fd>
    2ca6:	48 b8 45 72 72 6f 72 	movabs $0x43203a726f727245,%rax
    2cad:	3a 20 43 
    2cb0:	48 ba 6c 69 65 6e 74 	movabs $0x6e7520746e65696c,%rdx
    2cb7:	20 75 6e 
    2cba:	48 89 45 00          	mov    %rax,0x0(%rbp)
    2cbe:	48 89 55 08          	mov    %rdx,0x8(%rbp)
    2cc2:	48 b8 61 62 6c 65 20 	movabs $0x206f7420656c6261,%rax
    2cc9:	74 6f 20 
    2ccc:	48 ba 77 72 69 74 65 	movabs $0x6f74206574697277,%rdx
    2cd3:	20 74 6f 
    2cd6:	48 89 45 10          	mov    %rax,0x10(%rbp)
    2cda:	48 89 55 18          	mov    %rdx,0x18(%rbp)
    2cde:	48 b8 20 74 68 65 20 	movabs $0x7475412065687420,%rax
    2ce5:	41 75 74 
    2ce8:	48 ba 6f 6c 61 62 20 	movabs $0x7265732062616c6f,%rdx
    2cef:	73 65 72 
    2cf2:	48 89 45 20          	mov    %rax,0x20(%rbp)
    2cf6:	48 89 55 28          	mov    %rdx,0x28(%rbp)
    2cfa:	c7 45 30 76 65 72 00 	movl   $0x726576,0x30(%rbp)
    2d01:	89 df                	mov    %ebx,%edi
    2d03:	e8 98 e5 ff ff       	call   12a0 <close@plt>
    2d08:	b8 ff ff ff ff       	mov    $0xffffffff,%eax
    2d0d:	e9 43 fd ff ff       	jmp    2a55 <submitr+0x2fd>
    2d12:	48 b8 45 72 72 6f 72 	movabs $0x43203a726f727245,%rax
    2d19:	3a 20 43 
    2d1c:	48 ba 6c 69 65 6e 74 	movabs $0x6e7520746e65696c,%rdx
    2d23:	20 75 6e 
    2d26:	48 89 45 00          	mov    %rax,0x0(%rbp)
    2d2a:	48 89 55 08          	mov    %rdx,0x8(%rbp)
    2d2e:	48 b8 61 62 6c 65 20 	movabs $0x206f7420656c6261,%rax
    2d35:	74 6f 20 
    2d38:	48 ba 72 65 61 64 20 	movabs $0x7269662064616572,%rdx
    2d3f:	66 69 72 
    2d42:	48 89 45 10          	mov    %rax,0x10(%rbp)
    2d46:	48 89 55 18          	mov    %rdx,0x18(%rbp)
    2d4a:	48 b8 73 74 20 68 65 	movabs $0x6564616568207473,%rax
    2d51:	61 64 65 
    2d54:	48 ba 72 20 66 72 6f 	movabs $0x41206d6f72662072,%rdx
    2d5b:	6d 20 41 
    2d5e:	48 89 45 20          	mov    %rax,0x20(%rbp)
    2d62:	48 89 55 28          	mov    %rdx,0x28(%rbp)
    2d66:	48 b8 75 74 6f 6c 61 	movabs $0x732062616c6f7475,%rax
    2d6d:	62 20 73 
    2d70:	48 89 45 30          	mov    %rax,0x30(%rbp)
    2d74:	c7 45 38 65 72 76 65 	movl   $0x65767265,0x38(%rbp)
    2d7b:	66 c7 45 3c 72 00    	movw   $0x72,0x3c(%rbp)
    2d81:	89 df                	mov    %ebx,%edi
    2d83:	e8 18 e5 ff ff       	call   12a0 <close@plt>
    2d88:	b8 ff ff ff ff       	mov    $0xffffffff,%eax
    2d8d:	e9 c3 fc ff ff       	jmp    2a55 <submitr+0x2fd>
    2d92:	48 8d b4 24 50 20 00 	lea    0x2050(%rsp),%rsi
    2d99:	00 
    2d9a:	48 8d 7c 24 40       	lea    0x40(%rsp),%rdi
    2d9f:	ba 00 20 00 00       	mov    $0x2000,%edx
    2da4:	e8 fe f7 ff ff       	call   25a7 <rio_readlineb>
    2da9:	48 85 c0             	test   %rax,%rax
    2dac:	0f 8e 96 00 00 00    	jle    2e48 <submitr+0x6f0>
    2db2:	44 8b 44 24 2c       	mov    0x2c(%rsp),%r8d
    2db7:	41 81 f8 c8 00 00 00 	cmp    $0xc8,%r8d
    2dbe:	0f 85 05 01 00 00    	jne    2ec9 <submitr+0x771>
    2dc4:	48 8d b4 24 50 20 00 	lea    0x2050(%rsp),%rsi
    2dcb:	00 
    2dcc:	48 89 ef             	mov    %rbp,%rdi
    2dcf:	e8 7c e4 ff ff       	call   1250 <strcpy@plt>
    2dd4:	89 df                	mov    %ebx,%edi
    2dd6:	e8 c5 e4 ff ff       	call   12a0 <close@plt>
    2ddb:	b9 04 00 00 00       	mov    $0x4,%ecx
    2de0:	48 8d 3d 36 1b 00 00 	lea    0x1b36(%rip),%rdi        # 491d <transition_table+0x4fd>
    2de7:	48 89 ee             	mov    %rbp,%rsi
    2dea:	f3 a6                	repz cmpsb %es:(%rdi),%ds:(%rsi)
    2dec:	0f 97 c0             	seta   %al
    2def:	1c 00                	sbb    $0x0,%al
    2df1:	0f be c0             	movsbl %al,%eax
    2df4:	85 c0                	test   %eax,%eax
    2df6:	0f 84 59 fc ff ff    	je     2a55 <submitr+0x2fd>
    2dfc:	b9 05 00 00 00       	mov    $0x5,%ecx
    2e01:	48 8d 3d 19 1b 00 00 	lea    0x1b19(%rip),%rdi        # 4921 <transition_table+0x501>
    2e08:	48 89 ee             	mov    %rbp,%rsi
    2e0b:	f3 a6                	repz cmpsb %es:(%rdi),%ds:(%rsi)
    2e0d:	0f 97 c0             	seta   %al
    2e10:	1c 00                	sbb    $0x0,%al
    2e12:	0f be c0             	movsbl %al,%eax
    2e15:	85 c0                	test   %eax,%eax
    2e17:	0f 84 38 fc ff ff    	je     2a55 <submitr+0x2fd>
    2e1d:	b9 03 00 00 00       	mov    $0x3,%ecx
    2e22:	48 8d 3d fd 1a 00 00 	lea    0x1afd(%rip),%rdi        # 4926 <transition_table+0x506>
    2e29:	48 89 ee             	mov    %rbp,%rsi
    2e2c:	f3 a6                	repz cmpsb %es:(%rdi),%ds:(%rsi)
    2e2e:	0f 97 c0             	seta   %al
    2e31:	1c 00                	sbb    $0x0,%al
    2e33:	0f be c0             	movsbl %al,%eax
    2e36:	85 c0                	test   %eax,%eax
    2e38:	0f 84 17 fc ff ff    	je     2a55 <submitr+0x2fd>
    2e3e:	b8 ff ff ff ff       	mov    $0xffffffff,%eax
    2e43:	e9 0d fc ff ff       	jmp    2a55 <submitr+0x2fd>
    2e48:	48 b8 45 72 72 6f 72 	movabs $0x43203a726f727245,%rax
    2e4f:	3a 20 43 
    2e52:	48 ba 6c 69 65 6e 74 	movabs $0x6e7520746e65696c,%rdx
    2e59:	20 75 6e 
    2e5c:	48 89 45 00          	mov    %rax,0x0(%rbp)
    2e60:	48 89 55 08          	mov    %rdx,0x8(%rbp)
    2e64:	48 b8 61 62 6c 65 20 	movabs $0x206f7420656c6261,%rax
    2e6b:	74 6f 20 
    2e6e:	48 ba 72 65 61 64 20 	movabs $0x6174732064616572,%rdx
    2e75:	73 74 61 
    2e78:	48 89 45 10          	mov    %rax,0x10(%rbp)
    2e7c:	48 89 55 18          	mov    %rdx,0x18(%rbp)
    2e80:	48 b8 74 75 73 20 6d 	movabs $0x7373656d20737574,%rax
    2e87:	65 73 73 
    2e8a:	48 ba 61 67 65 20 66 	movabs $0x6d6f726620656761,%rdx
    2e91:	72 6f 6d 
    2e94:	48 89 45 20          	mov    %rax,0x20(%rbp)
    2e98:	48 89 55 28          	mov    %rdx,0x28(%rbp)
    2e9c:	48 b8 20 41 75 74 6f 	movabs $0x62616c6f74754120,%rax
    2ea3:	6c 61 62 
    2ea6:	48 ba 20 73 65 72 76 	movabs $0x72657672657320,%rdx
    2ead:	65 72 00 
    2eb0:	48 89 45 30          	mov    %rax,0x30(%rbp)
    2eb4:	48 89 55 38          	mov    %rdx,0x38(%rbp)
    2eb8:	89 df                	mov    %ebx,%edi
    2eba:	e8 e1 e3 ff ff       	call   12a0 <close@plt>
    2ebf:	b8 ff ff ff ff       	mov    $0xffffffff,%eax
    2ec4:	e9 8c fb ff ff       	jmp    2a55 <submitr+0x2fd>
    2ec9:	4c 8d 8c 24 50 80 00 	lea    0x8050(%rsp),%r9
    2ed0:	00 
    2ed1:	48 8d 0d 00 1a 00 00 	lea    0x1a00(%rip),%rcx        # 48d8 <transition_table+0x4b8>
    2ed8:	48 c7 c2 ff ff ff ff 	mov    $0xffffffffffffffff,%rdx
    2edf:	be 01 00 00 00       	mov    $0x1,%esi
    2ee4:	48 89 ef             	mov    %rbp,%rdi
    2ee7:	b8 00 00 00 00       	mov    $0x0,%eax
    2eec:	e8 cf e4 ff ff       	call   13c0 <__sprintf_chk@plt>
    2ef1:	89 df                	mov    %ebx,%edi
    2ef3:	e8 a8 e3 ff ff       	call   12a0 <close@plt>
    2ef8:	b8 ff ff ff ff       	mov    $0xffffffff,%eax
    2efd:	e9 53 fb ff ff       	jmp    2a55 <submitr+0x2fd>
    2f02:	e8 79 e3 ff ff       	call   1280 <__stack_chk_fail@plt>

0000000000002f07 <init_timeout>:
    2f07:	f3 0f 1e fa          	endbr64 
    2f0b:	85 ff                	test   %edi,%edi
    2f0d:	74 26                	je     2f35 <init_timeout+0x2e>
    2f0f:	53                   	push   %rbx
    2f10:	89 fb                	mov    %edi,%ebx
    2f12:	78 1a                	js     2f2e <init_timeout+0x27>
    2f14:	48 8d 35 71 f5 ff ff 	lea    -0xa8f(%rip),%rsi        # 248c <sigalrm_handler>
    2f1b:	bf 0e 00 00 00       	mov    $0xe,%edi
    2f20:	e8 ab e3 ff ff       	call   12d0 <signal@plt>
    2f25:	89 df                	mov    %ebx,%edi
    2f27:	e8 64 e3 ff ff       	call   1290 <alarm@plt>
    2f2c:	5b                   	pop    %rbx
    2f2d:	c3                   	ret    
    2f2e:	bb 00 00 00 00       	mov    $0x0,%ebx
    2f33:	eb df                	jmp    2f14 <init_timeout+0xd>
    2f35:	c3                   	ret    

0000000000002f36 <init_driver>:
    2f36:	f3 0f 1e fa          	endbr64 
    2f3a:	41 54                	push   %r12
    2f3c:	55                   	push   %rbp
    2f3d:	53                   	push   %rbx
    2f3e:	48 83 ec 20          	sub    $0x20,%rsp
    2f42:	48 89 fd             	mov    %rdi,%rbp
    2f45:	64 48 8b 04 25 28 00 	mov    %fs:0x28,%rax
    2f4c:	00 00 
    2f4e:	48 89 44 24 18       	mov    %rax,0x18(%rsp)
    2f53:	31 c0                	xor    %eax,%eax
    2f55:	be 01 00 00 00       	mov    $0x1,%esi
    2f5a:	bf 0d 00 00 00       	mov    $0xd,%edi
    2f5f:	e8 6c e3 ff ff       	call   12d0 <signal@plt>
    2f64:	be 01 00 00 00       	mov    $0x1,%esi
    2f69:	bf 1d 00 00 00       	mov    $0x1d,%edi
    2f6e:	e8 5d e3 ff ff       	call   12d0 <signal@plt>
    2f73:	be 01 00 00 00       	mov    $0x1,%esi
    2f78:	bf 1d 00 00 00       	mov    $0x1d,%edi
    2f7d:	e8 4e e3 ff ff       	call   12d0 <signal@plt>
    2f82:	ba 00 00 00 00       	mov    $0x0,%edx
    2f87:	be 01 00 00 00       	mov    $0x1,%esi
    2f8c:	bf 02 00 00 00       	mov    $0x2,%edi
    2f91:	e8 3a e4 ff ff       	call   13d0 <socket@plt>
    2f96:	85 c0                	test   %eax,%eax
    2f98:	0f 88 9c 00 00 00    	js     303a <init_driver+0x104>
    2f9e:	89 c3                	mov    %eax,%ebx
    2fa0:	48 8d 3d 82 19 00 00 	lea    0x1982(%rip),%rdi        # 4929 <transition_table+0x509>
    2fa7:	e8 34 e3 ff ff       	call   12e0 <gethostbyname@plt>
    2fac:	48 85 c0             	test   %rax,%rax
    2faf:	0f 84 d1 00 00 00    	je     3086 <init_driver+0x150>
    2fb5:	49 89 e4             	mov    %rsp,%r12
    2fb8:	48 c7 04 24 00 00 00 	movq   $0x0,(%rsp)
    2fbf:	00 
    2fc0:	48 c7 44 24 08 00 00 	movq   $0x0,0x8(%rsp)
    2fc7:	00 00 
    2fc9:	66 c7 04 24 02 00    	movw   $0x2,(%rsp)
    2fcf:	48 63 50 14          	movslq 0x14(%rax),%rdx
    2fd3:	48 8b 40 18          	mov    0x18(%rax),%rax
    2fd7:	48 8b 30             	mov    (%rax),%rsi
    2fda:	48 8d 7c 24 04       	lea    0x4(%rsp),%rdi
    2fdf:	b9 0c 00 00 00       	mov    $0xc,%ecx
    2fe4:	e8 07 e3 ff ff       	call   12f0 <__memmove_chk@plt>
    2fe9:	66 c7 44 24 02 30 39 	movw   $0x3930,0x2(%rsp)
    2ff0:	ba 10 00 00 00       	mov    $0x10,%edx
    2ff5:	4c 89 e6             	mov    %r12,%rsi
    2ff8:	89 df                	mov    %ebx,%edi
    2ffa:	e8 81 e3 ff ff       	call   1380 <connect@plt>
    2fff:	85 c0                	test   %eax,%eax
    3001:	0f 88 e7 00 00 00    	js     30ee <init_driver+0x1b8>
    3007:	89 df                	mov    %ebx,%edi
    3009:	e8 92 e2 ff ff       	call   12a0 <close@plt>
    300e:	66 c7 45 00 4f 4b    	movw   $0x4b4f,0x0(%rbp)
    3014:	c6 45 02 00          	movb   $0x0,0x2(%rbp)
    3018:	b8 00 00 00 00       	mov    $0x0,%eax
    301d:	48 8b 4c 24 18       	mov    0x18(%rsp),%rcx
    3022:	64 48 33 0c 25 28 00 	xor    %fs:0x28,%rcx
    3029:	00 00 
    302b:	0f 85 10 01 00 00    	jne    3141 <init_driver+0x20b>
    3031:	48 83 c4 20          	add    $0x20,%rsp
    3035:	5b                   	pop    %rbx
    3036:	5d                   	pop    %rbp
    3037:	41 5c                	pop    %r12
    3039:	c3                   	ret    
    303a:	48 b8 45 72 72 6f 72 	movabs $0x43203a726f727245,%rax
    3041:	3a 20 43 
    3044:	48 ba 6c 69 65 6e 74 	movabs $0x6e7520746e65696c,%rdx
    304b:	20 75 6e 
    304e:	48 89 45 00          	mov    %rax,0x0(%rbp)
    3052:	48 89 55 08          	mov    %rdx,0x8(%rbp)
    3056:	48 b8 61 62 6c 65 20 	movabs $0x206f7420656c6261,%rax
    305d:	74 6f 20 
    3060:	48 ba 63 72 65 61 74 	movabs $0x7320657461657263,%rdx
    3067:	65 20 73 
    306a:	48 89 45 10          	mov    %rax,0x10(%rbp)
    306e:	48 89 55 18          	mov    %rdx,0x18(%rbp)
    3072:	c7 45 20 6f 63 6b 65 	movl   $0x656b636f,0x20(%rbp)
    3079:	66 c7 45 24 74 00    	movw   $0x74,0x24(%rbp)
    307f:	b8 ff ff ff ff       	mov    $0xffffffff,%eax
    3084:	eb 97                	jmp    301d <init_driver+0xe7>
    3086:	48 b8 45 72 72 6f 72 	movabs $0x44203a726f727245,%rax
    308d:	3a 20 44 
    3090:	48 ba 4e 53 20 69 73 	movabs $0x6e7520736920534e,%rdx
    3097:	20 75 6e 
    309a:	48 89 45 00          	mov    %rax,0x0(%rbp)
    309e:	48 89 55 08          	mov    %rdx,0x8(%rbp)
    30a2:	48 b8 61 62 6c 65 20 	movabs $0x206f7420656c6261,%rax
    30a9:	74 6f 20 
    30ac:	48 ba 72 65 73 6f 6c 	movabs $0x2065766c6f736572,%rdx
    30b3:	76 65 20 
    30b6:	48 89 45 10          	mov    %rax,0x10(%rbp)
    30ba:	48 89 55 18          	mov    %rdx,0x18(%rbp)
    30be:	48 b8 73 65 72 76 65 	movabs $0x6120726576726573,%rax
    30c5:	72 20 61 
    30c8:	48 89 45 20          	mov    %rax,0x20(%rbp)
    30cc:	c7 45 28 64 64 72 65 	movl   $0x65726464,0x28(%rbp)
    30d3:	66 c7 45 2c 73 73    	movw   $0x7373,0x2c(%rbp)
    30d9:	c6 45 2e 00          	movb   $0x0,0x2e(%rbp)
    30dd:	89 df                	mov    %ebx,%edi
    30df:	e8 bc e1 ff ff       	call   12a0 <close@plt>
    30e4:	b8 ff ff ff ff       	mov    $0xffffffff,%eax
    30e9:	e9 2f ff ff ff       	jmp    301d <init_driver+0xe7>
    30ee:	48 b8 45 72 72 6f 72 	movabs $0x55203a726f727245,%rax
    30f5:	3a 20 55 
    30f8:	48 ba 6e 61 62 6c 65 	movabs $0x6f7420656c62616e,%rdx
    30ff:	20 74 6f 
    3102:	48 89 45 00          	mov    %rax,0x0(%rbp)
    3106:	48 89 55 08          	mov    %rdx,0x8(%rbp)
    310a:	48 b8 20 63 6f 6e 6e 	movabs $0x7463656e6e6f6320,%rax
    3111:	65 63 74 
    3114:	48 ba 20 74 6f 20 73 	movabs $0x76726573206f7420,%rdx
    311b:	65 72 76 
    311e:	48 89 45 10          	mov    %rax,0x10(%rbp)
    3122:	48 89 55 18          	mov    %rdx,0x18(%rbp)
    3126:	66 c7 45 20 65 72    	movw   $0x7265,0x20(%rbp)
    312c:	c6 45 22 00          	movb   $0x0,0x22(%rbp)
    3130:	89 df                	mov    %ebx,%edi
    3132:	e8 69 e1 ff ff       	call   12a0 <close@plt>
    3137:	b8 ff ff ff ff       	mov    $0xffffffff,%eax
    313c:	e9 dc fe ff ff       	jmp    301d <init_driver+0xe7>
    3141:	e8 3a e1 ff ff       	call   1280 <__stack_chk_fail@plt>

0000000000003146 <driver_post>:
    3146:	f3 0f 1e fa          	endbr64 
    314a:	53                   	push   %rbx
    314b:	4c 89 cb             	mov    %r9,%rbx
    314e:	45 85 c0             	test   %r8d,%r8d
    3151:	75 18                	jne    316b <driver_post+0x25>
    3153:	48 85 ff             	test   %rdi,%rdi
    3156:	74 05                	je     315d <driver_post+0x17>
    3158:	80 3f 00             	cmpb   $0x0,(%rdi)
    315b:	75 37                	jne    3194 <driver_post+0x4e>
    315d:	66 c7 03 4f 4b       	movw   $0x4b4f,(%rbx)
    3162:	c6 43 02 00          	movb   $0x0,0x2(%rbx)
    3166:	44 89 c0             	mov    %r8d,%eax
    3169:	5b                   	pop    %rbx
    316a:	c3                   	ret    
    316b:	48 89 ca             	mov    %rcx,%rdx
    316e:	48 8d 35 c4 17 00 00 	lea    0x17c4(%rip),%rsi        # 4939 <transition_table+0x519>
    3175:	bf 01 00 00 00       	mov    $0x1,%edi
    317a:	b8 00 00 00 00       	mov    $0x0,%eax
    317f:	e8 bc e1 ff ff       	call   1340 <__printf_chk@plt>
    3184:	66 c7 03 4f 4b       	movw   $0x4b4f,(%rbx)
    3189:	c6 43 02 00          	movb   $0x0,0x2(%rbx)
    318d:	b8 00 00 00 00       	mov    $0x0,%eax
    3192:	eb d5                	jmp    3169 <driver_post+0x23>
    3194:	48 83 ec 08          	sub    $0x8,%rsp
    3198:	41 51                	push   %r9
    319a:	49 89 c9             	mov    %rcx,%r9
    319d:	49 89 d0             	mov    %rdx,%r8
    31a0:	48 89 f9             	mov    %rdi,%rcx
    31a3:	48 89 f2             	mov    %rsi,%rdx
    31a6:	be 39 30 00 00       	mov    $0x3039,%esi
    31ab:	48 8d 3d 77 17 00 00 	lea    0x1777(%rip),%rdi        # 4929 <transition_table+0x509>
    31b2:	e8 a1 f5 ff ff       	call   2758 <submitr>
    31b7:	48 83 c4 10          	add    $0x10,%rsp
    31bb:	eb ac                	jmp    3169 <driver_post+0x23>
    31bd:	0f 1f 00             	nopl   (%rax)

00000000000031c0 <__libc_csu_init>:
    31c0:	f3 0f 1e fa          	endbr64 
    31c4:	41 57                	push   %r15
    31c6:	4c 8d 3d fb 3a 00 00 	lea    0x3afb(%rip),%r15        # 6cc8 <__frame_dummy_init_array_entry>
    31cd:	41 56                	push   %r14
    31cf:	49 89 d6             	mov    %rdx,%r14
    31d2:	41 55                	push   %r13
    31d4:	49 89 f5             	mov    %rsi,%r13
    31d7:	41 54                	push   %r12
    31d9:	41 89 fc             	mov    %edi,%r12d
    31dc:	55                   	push   %rbp
    31dd:	48 8d 2d ec 3a 00 00 	lea    0x3aec(%rip),%rbp        # 6cd0 <__do_global_dtors_aux_fini_array_entry>
    31e4:	53                   	push   %rbx
    31e5:	4c 29 fd             	sub    %r15,%rbp
    31e8:	48 83 ec 08          	sub    $0x8,%rsp
    31ec:	e8 0f de ff ff       	call   1000 <_init>
    31f1:	48 c1 fd 03          	sar    $0x3,%rbp
    31f5:	74 1f                	je     3216 <__libc_csu_init+0x56>
    31f7:	31 db                	xor    %ebx,%ebx
    31f9:	0f 1f 80 00 00 00 00 	nopl   0x0(%rax)
    3200:	4c 89 f2             	mov    %r14,%rdx
    3203:	4c 89 ee             	mov    %r13,%rsi
    3206:	44 89 e7             	mov    %r12d,%edi
    3209:	41 ff 14 df          	call   *(%r15,%rbx,8)
    320d:	48 83 c3 01          	add    $0x1,%rbx
    3211:	48 39 dd             	cmp    %rbx,%rbp
    3214:	75 ea                	jne    3200 <__libc_csu_init+0x40>
    3216:	48 83 c4 08          	add    $0x8,%rsp
    321a:	5b                   	pop    %rbx
    321b:	5d                   	pop    %rbp
    321c:	41 5c                	pop    %r12
    321e:	41 5d                	pop    %r13
    3220:	41 5e                	pop    %r14
    3222:	41 5f                	pop    %r15
    3224:	c3                   	ret    
    3225:	66 66 2e 0f 1f 84 00 	data16 cs nopw 0x0(%rax,%rax,1)
    322c:	00 00 00 00 

0000000000003230 <__libc_csu_fini>:
    3230:	f3 0f 1e fa          	endbr64 
    3234:	c3                   	ret    

Disassembly of section .fini:

0000000000003238 <_fini>:
    3238:	f3 0f 1e fa          	endbr64 
    323c:	48 83 ec 08          	sub    $0x8,%rsp
    3240:	48 83 c4 08          	add    $0x8,%rsp
    3244:	c3                   	ret    
